   1               		.file	"main.c"
   2               	__SP_H__ = 0x3e
   3               	__SP_L__ = 0x3d
   4               	__SREG__ = 0x3f
   5               	__RAMPZ__ = 0x3b
   6               	__tmp_reg__ = 0
   7               	__zero_reg__ = 1
   8               		.text
   9               	.global	__vector_17
  11               	__vector_17:
  12 0000 1F92 1FB6 		__gcc_isr 1
  12      1F92 1124 
  12      8F93 
  13 000a 9F93      		push r25
  14 000c AF93      		push r26
  15 000e BF93      		push r27
  16               	/* prologue: Signal */
  17               	/* frame size = 0 */
  18               	/* stack size = 3...7 */
  19               	.L__stack_usage = 3 + __gcc_isr.n_pushed
  20 0010 8091 0000 		lds r24,timer1_millis
  21 0014 9091 0000 		lds r25,timer1_millis+1
  22 0018 A091 0000 		lds r26,timer1_millis+2
  23 001c B091 0000 		lds r27,timer1_millis+3
  24 0020 0196      		adiw r24,1
  25 0022 A11D      		adc r26,__zero_reg__
  26 0024 B11D      		adc r27,__zero_reg__
  27 0026 8093 0000 		sts timer1_millis,r24
  28 002a 9093 0000 		sts timer1_millis+1,r25
  29 002e A093 0000 		sts timer1_millis+2,r26
  30 0032 B093 0000 		sts timer1_millis+3,r27
  31               	/* epilogue start */
  32 0036 BF91      		pop r27
  33 0038 AF91      		pop r26
  34 003a 9F91      		pop r25
  35 003c 8F91 1F90 		__gcc_isr 2
  35      1FBE 1F90 
  36 0044 1895      		reti
  37               		__gcc_isr 0,r24
  39               	.global	millis
  41               	millis:
  42               	/* prologue: function */
  43               	/* frame size = 0 */
  44               	/* stack size = 0 */
  45               	.L__stack_usage = 0
  46               	/* #APP */
  47               	 ;  50 "/usr/avr/include/util/atomic.h" 1
  48 0046 F894      		cli
  49               	 ;  0 "" 2
  50               	/* #NOAPP */
  51 0048 6091 0000 		lds r22,timer1_millis
  52 004c 7091 0000 		lds r23,timer1_millis+1
  53 0050 8091 0000 		lds r24,timer1_millis+2
  54 0054 9091 0000 		lds r25,timer1_millis+3
  55               	/* #APP */
  56               	 ;  56 "/usr/avr/include/util/atomic.h" 1
  57 0058 7894      		sei
  58               	 ;  0 "" 2
  59               	/* #NOAPP */
  60               	/* epilogue start */
  61 005a 0895      		ret
  63               	.global	init_cache
  65               	init_cache:
  66 005c 6F92      		push r6
  67 005e 7F92      		push r7
  68 0060 8F92      		push r8
  69 0062 9F92      		push r9
  70 0064 AF92      		push r10
  71 0066 BF92      		push r11
  72 0068 CF92      		push r12
  73 006a DF92      		push r13
  74 006c EF92      		push r14
  75 006e FF92      		push r15
  76 0070 0F93      		push r16
  77 0072 1F93      		push r17
  78 0074 CF93      		push r28
  79 0076 DF93      		push r29
  80 0078 0F92      		push __tmp_reg__
  81 007a CDB7      		in r28,__SP_L__
  82 007c DEB7      		in r29,__SP_H__
  83               	/* prologue: function */
  84               	/* frame size = 1 */
  85               	/* stack size = 15 */
  86               	.L__stack_usage = 15
  87 007e 882E      		mov r8,r24
  88 0080 942E      		mov r9,r20
  89 0082 E52E      		mov r14,r21
  90 0084 F62E      		mov r15,r22
  91 0086 072F      		mov r16,r23
  92 0088 3901      		movw r6,r18
  93 008a A82E      		mov r10,r24
  94 008c B12C      		mov r11,__zero_reg__
  95 008e 27E0      		ldi r18,lo8(7)
  96 0090 32E0      		ldi r19,lo8(2)
  97 0092 829E      		mul r8,r18
  98 0094 C001      		movw r24,r0
  99 0096 839E      		mul r8,r19
 100 0098 900D      		add r25,r0
 101 009a 1124      		clr __zero_reg__
 102 009c 9C01      		movw r18,r24
 103 009e 2050      		subi r18,lo8(-(pool))
 104 00a0 3040      		sbci r19,hi8(-(pool))
 105 00a2 6901      		movw r12,r18
 106 00a4 1AE0      		ldi r17,lo8(10)
 107 00a6 00C0      		rjmp .L5
 108               	.L7:
 109 00a8 3FEF      		ldi r19,lo8(319999)
 110 00aa 81EE      		ldi r24,hi8(319999)
 111 00ac 94E0      		ldi r25,hlo8(319999)
 112 00ae 3150      	1:	subi r19,1
 113 00b0 8040      		sbci r24,0
 114 00b2 9040      		sbci r25,0
 115 00b4 01F4      		brne 1b
 116 00b6 00C0      		rjmp .
 117 00b8 0000      		nop
 118               	.L5:
 119 00ba 9E01      		movw r18,r28
 120 00bc 2F5F      		subi r18,-1
 121 00be 3F4F      		sbci r19,-1
 122 00c0 A601      		movw r20,r12
 123 00c2 692D      		mov r22,r9
 124 00c4 7E2D      		mov r23,r14
 125 00c6 8F2D      		mov r24,r15
 126 00c8 902F      		mov r25,r16
 127 00ca 0E94 0000 		call SD_readSingleBlock
 128 00ce E981      		ldd r30,Y+1
 129 00d0 E031      		cpi r30,lo8(16)
 130 00d2 00F4      		brsh .L6
 131 00d4 1A95      		dec r17
 132 00d6 01F4      		brne .L7
 133 00d8 80E0      		ldi r24,lo8(__c.56)
 134 00da 90E0      		ldi r25,hi8(__c.56)
 135 00dc 0E94 0000 		call UART_puts_p
 136 00e0 682D      		mov r22,r8
 137 00e2 70E0      		ldi r23,0
 138 00e4 80E0      		ldi r24,0
 139 00e6 90E0      		ldi r25,0
 140 00e8 0E94 0000 		call UART_puthex32
 141 00ec 80E0      		ldi r24,lo8(__c.55)
 142 00ee 90E0      		ldi r25,hi8(__c.55)
 143 00f0 0E94 0000 		call UART_puts_p
 144 00f4 8981      		ldd r24,Y+1
 145 00f6 0E94 0000 		call SD_printDataErrToken
 146 00fa 80E0      		ldi r24,lo8(__c.54)
 147 00fc 90E0      		ldi r25,hi8(__c.54)
 148 00fe 0E94 0000 		call UART_puts_p
 149               	.L8:
 150 0102 00C0      		rjmp .L8
 151               	.L6:
 152 0104 27E0      		ldi r18,lo8(7)
 153 0106 32E0      		ldi r19,lo8(2)
 154 0108 A29E      		mul r10,r18
 155 010a C001      		movw r24,r0
 156 010c A39E      		mul r10,r19
 157 010e 900D      		add r25,r0
 158 0110 B29E      		mul r11,r18
 159 0112 900D      		add r25,r0
 160 0114 1124      		clr r1
 161 0116 FC01      		movw r30,r24
 162 0118 E050      		subi r30,lo8(-(pool+512))
 163 011a F040      		sbci r31,hi8(-(pool+512))
 164 011c 9082      		st Z,r9
 165 011e E182      		std Z+1,r14
 166 0120 F282      		std Z+2,r15
 167 0122 0383      		std Z+3,r16
 168 0124 FC01      		movw r30,r24
 169 0126 E050      		subi r30,lo8(-(pool+516))
 170 0128 F040      		sbci r31,hi8(-(pool+516))
 171 012a 6082      		st Z,r6
 172 012c 7182      		std Z+1,r7
 173 012e 8050      		subi r24,lo8(-(pool+518))
 174 0130 9040      		sbci r25,hi8(-(pool+518))
 175 0132 FC01      		movw r30,r24
 176 0134 1082      		st Z,__zero_reg__
 177               	/* epilogue start */
 178 0136 0F90      		pop __tmp_reg__
 179 0138 DF91      		pop r29
 180 013a CF91      		pop r28
 181 013c 1F91      		pop r17
 182 013e 0F91      		pop r16
 183 0140 FF90      		pop r15
 184 0142 EF90      		pop r14
 185 0144 DF90      		pop r13
 186 0146 CF90      		pop r12
 187 0148 BF90      		pop r11
 188 014a AF90      		pop r10
 189 014c 9F90      		pop r9
 190 014e 8F90      		pop r8
 191 0150 7F90      		pop r7
 192 0152 6F90      		pop r6
 193 0154 0895      		ret
 195               	.global	addage
 197               	addage:
 198               	/* prologue: function */
 199               	/* frame size = 0 */
 200               	/* stack size = 0 */
 201               	.L__stack_usage = 0
 202 0156 27E0      		ldi r18,lo8(7)
 203 0158 32E0      		ldi r19,lo8(2)
 204 015a 829F      		mul r24,r18
 205 015c F001      		movw r30,r0
 206 015e 839F      		mul r24,r19
 207 0160 F00D      		add r31,r0
 208 0162 1124      		clr __zero_reg__
 209 0164 E050      		subi r30,lo8(-(pool+516))
 210 0166 F040      		sbci r31,hi8(-(pool+516))
 211 0168 8081      		ld r24,Z
 212 016a 9181      		ldd r25,Z+1
 213 016c 70E0      		ldi r23,0
 214 016e 9B01      		movw r18,r22
 215 0170 2095      		com r18
 216 0172 3095      		com r19
 217 0174 2817      		cp r18,r24
 218 0176 3907      		cpc r19,r25
 219 0178 00F0      		brlo .L9
 220 017a 860F      		add r24,r22
 221 017c 971F      		adc r25,r23
 222 017e 9183      		std Z+1,r25
 223 0180 8083      		st Z,r24
 224               	.L9:
 225               	/* epilogue start */
 226 0182 0895      		ret
 228               	.global	dump_state
 230               	dump_state:
 231 0184 CF93      		push r28
 232 0186 DF93      		push r29
 233               	/* prologue: function */
 234               	/* frame size = 0 */
 235               	/* stack size = 2 */
 236               	.L__stack_usage = 2
 237 0188 80E0      		ldi r24,lo8(__c.22)
 238 018a 90E0      		ldi r25,hi8(__c.22)
 239 018c 0E94 0000 		call UART_puts_p
 240 0190 80E0      		ldi r24,lo8(__c.21)
 241 0192 90E0      		ldi r25,hi8(__c.21)
 242 0194 0E94 0000 		call UART_puts_p
 243 0198 C0E0      		ldi r28,0
 244 019a D0E0      		ldi r29,0
 245               	.L12:
 246 019c E091 0000 		lds r30,core
 247 01a0 F091 0000 		lds r31,core+1
 248 01a4 CE01      		movw r24,r28
 249 01a6 880F      		lsl r24
 250 01a8 991F      		rol r25
 251 01aa 880F      		lsl r24
 252 01ac 991F      		rol r25
 253 01ae E80F      		add r30,r24
 254 01b0 F91F      		adc r31,r25
 255 01b2 6081      		ld r22,Z
 256 01b4 7181      		ldd r23,Z+1
 257 01b6 8281      		ldd r24,Z+2
 258 01b8 9381      		ldd r25,Z+3
 259 01ba 0E94 0000 		call UART_puthex32
 260 01be 80E0      		ldi r24,lo8(__c.20)
 261 01c0 90E0      		ldi r25,hi8(__c.20)
 262 01c2 0E94 0000 		call UART_puts_p
 263 01c6 E091 0000 		lds r30,core
 264 01ca F091 0000 		lds r31,core+1
 265 01ce CE01      		movw r24,r28
 266 01d0 0196      		adiw r24,1
 267 01d2 880F      		lsl r24
 268 01d4 991F      		rol r25
 269 01d6 880F      		lsl r24
 270 01d8 991F      		rol r25
 271 01da E80F      		add r30,r24
 272 01dc F91F      		adc r31,r25
 273 01de 6081      		ld r22,Z
 274 01e0 7181      		ldd r23,Z+1
 275 01e2 8281      		ldd r24,Z+2
 276 01e4 9381      		ldd r25,Z+3
 277 01e6 0E94 0000 		call UART_puthex32
 278 01ea 80E0      		ldi r24,lo8(__c.19)
 279 01ec 90E0      		ldi r25,hi8(__c.19)
 280 01ee 0E94 0000 		call UART_puts_p
 281 01f2 E091 0000 		lds r30,core
 282 01f6 F091 0000 		lds r31,core+1
 283 01fa CE01      		movw r24,r28
 284 01fc 0296      		adiw r24,2
 285 01fe 880F      		lsl r24
 286 0200 991F      		rol r25
 287 0202 880F      		lsl r24
 288 0204 991F      		rol r25
 289 0206 E80F      		add r30,r24
 290 0208 F91F      		adc r31,r25
 291 020a 6081      		ld r22,Z
 292 020c 7181      		ldd r23,Z+1
 293 020e 8281      		ldd r24,Z+2
 294 0210 9381      		ldd r25,Z+3
 295 0212 0E94 0000 		call UART_puthex32
 296 0216 80E0      		ldi r24,lo8(__c.18)
 297 0218 90E0      		ldi r25,hi8(__c.18)
 298 021a 0E94 0000 		call UART_puts_p
 299 021e E091 0000 		lds r30,core
 300 0222 F091 0000 		lds r31,core+1
 301 0226 CE01      		movw r24,r28
 302 0228 0396      		adiw r24,3
 303 022a 880F      		lsl r24
 304 022c 991F      		rol r25
 305 022e 880F      		lsl r24
 306 0230 991F      		rol r25
 307 0232 E80F      		add r30,r24
 308 0234 F91F      		adc r31,r25
 309 0236 6081      		ld r22,Z
 310 0238 7181      		ldd r23,Z+1
 311 023a 8281      		ldd r24,Z+2
 312 023c 9381      		ldd r25,Z+3
 313 023e 0E94 0000 		call UART_puthex32
 314 0242 80E0      		ldi r24,lo8(__c.17)
 315 0244 90E0      		ldi r25,hi8(__c.17)
 316 0246 0E94 0000 		call UART_puts_p
 317 024a 2496      		adiw r28,4
 318 024c C032      		cpi r28,32
 319 024e D105      		cpc r29,__zero_reg__
 320 0250 01F0      		breq .+2
 321 0252 00C0      		rjmp .L12
 322 0254 80E0      		ldi r24,lo8(__c.16)
 323 0256 90E0      		ldi r25,hi8(__c.16)
 324 0258 0E94 0000 		call UART_puts_p
 325 025c E091 0000 		lds r30,core
 326 0260 F091 0000 		lds r31,core+1
 327 0264 E058      		subi r30,-128
 328 0266 FF4F      		sbci r31,-1
 329 0268 6081      		ld r22,Z
 330 026a 7181      		ldd r23,Z+1
 331 026c 8281      		ldd r24,Z+2
 332 026e 9381      		ldd r25,Z+3
 333 0270 0E94 0000 		call UART_puthex32
 334 0274 80E0      		ldi r24,lo8(__c.15)
 335 0276 90E0      		ldi r25,hi8(__c.15)
 336 0278 0E94 0000 		call UART_puts_p
 337 027c E091 0000 		lds r30,core
 338 0280 F091 0000 		lds r31,core+1
 339 0284 EC57      		subi r30,124
 340 0286 FF4F      		sbci r31,-1
 341 0288 6081      		ld r22,Z
 342 028a 7181      		ldd r23,Z+1
 343 028c 8281      		ldd r24,Z+2
 344 028e 9381      		ldd r25,Z+3
 345 0290 0E94 0000 		call UART_puthex32
 346 0294 80E0      		ldi r24,lo8(__c.14)
 347 0296 90E0      		ldi r25,hi8(__c.14)
 348 0298 0E94 0000 		call UART_puts_p
 349 029c E091 0000 		lds r30,core
 350 02a0 F091 0000 		lds r31,core+1
 351 02a4 E857      		subi r30,120
 352 02a6 FF4F      		sbci r31,-1
 353 02a8 6081      		ld r22,Z
 354 02aa 7181      		ldd r23,Z+1
 355 02ac 8281      		ldd r24,Z+2
 356 02ae 9381      		ldd r25,Z+3
 357 02b0 0E94 0000 		call UART_puthex32
 358 02b4 80E0      		ldi r24,lo8(__c.13)
 359 02b6 90E0      		ldi r25,hi8(__c.13)
 360 02b8 0E94 0000 		call UART_puts_p
 361 02bc E091 0000 		lds r30,core
 362 02c0 F091 0000 		lds r31,core+1
 363 02c4 E457      		subi r30,116
 364 02c6 FF4F      		sbci r31,-1
 365 02c8 6081      		ld r22,Z
 366 02ca 7181      		ldd r23,Z+1
 367 02cc 8281      		ldd r24,Z+2
 368 02ce 9381      		ldd r25,Z+3
 369 02d0 0E94 0000 		call UART_puthex32
 370 02d4 80E0      		ldi r24,lo8(__c.12)
 371 02d6 90E0      		ldi r25,hi8(__c.12)
 372 02d8 0E94 0000 		call UART_puts_p
 373 02dc E091 0000 		lds r30,core
 374 02e0 F091 0000 		lds r31,core+1
 375 02e4 E057      		subi r30,112
 376 02e6 FF4F      		sbci r31,-1
 377 02e8 6081      		ld r22,Z
 378 02ea 7181      		ldd r23,Z+1
 379 02ec 8281      		ldd r24,Z+2
 380 02ee 9381      		ldd r25,Z+3
 381 02f0 0E94 0000 		call UART_puthex32
 382 02f4 80E0      		ldi r24,lo8(__c.11)
 383 02f6 90E0      		ldi r25,hi8(__c.11)
 384 02f8 0E94 0000 		call UART_puts_p
 385 02fc E091 0000 		lds r30,core
 386 0300 F091 0000 		lds r31,core+1
 387 0304 EC56      		subi r30,108
 388 0306 FF4F      		sbci r31,-1
 389 0308 6081      		ld r22,Z
 390 030a 7181      		ldd r23,Z+1
 391 030c 8281      		ldd r24,Z+2
 392 030e 9381      		ldd r25,Z+3
 393 0310 0E94 0000 		call UART_puthex32
 394 0314 80E0      		ldi r24,lo8(__c.10)
 395 0316 90E0      		ldi r25,hi8(__c.10)
 396 0318 0E94 0000 		call UART_puts_p
 397 031c E091 0000 		lds r30,core
 398 0320 F091 0000 		lds r31,core+1
 399 0324 E856      		subi r30,104
 400 0326 FF4F      		sbci r31,-1
 401 0328 6081      		ld r22,Z
 402 032a 7181      		ldd r23,Z+1
 403 032c 8281      		ldd r24,Z+2
 404 032e 9381      		ldd r25,Z+3
 405 0330 0E94 0000 		call UART_puthex32
 406 0334 80E0      		ldi r24,lo8(__c.9)
 407 0336 90E0      		ldi r25,hi8(__c.9)
 408 0338 0E94 0000 		call UART_puts_p
 409 033c E091 0000 		lds r30,core
 410 0340 F091 0000 		lds r31,core+1
 411 0344 E456      		subi r30,100
 412 0346 FF4F      		sbci r31,-1
 413 0348 6081      		ld r22,Z
 414 034a 7181      		ldd r23,Z+1
 415 034c 8281      		ldd r24,Z+2
 416 034e 9381      		ldd r25,Z+3
 417 0350 0E94 0000 		call UART_puthex32
 418 0354 80E0      		ldi r24,lo8(__c.8)
 419 0356 90E0      		ldi r25,hi8(__c.8)
 420 0358 0E94 0000 		call UART_puts_p
 421 035c E091 0000 		lds r30,core
 422 0360 F091 0000 		lds r31,core+1
 423 0364 E056      		subi r30,96
 424 0366 FF4F      		sbci r31,-1
 425 0368 6081      		ld r22,Z
 426 036a 7181      		ldd r23,Z+1
 427 036c 8281      		ldd r24,Z+2
 428 036e 9381      		ldd r25,Z+3
 429 0370 0E94 0000 		call UART_puthex32
 430 0374 80E0      		ldi r24,lo8(__c.7)
 431 0376 90E0      		ldi r25,hi8(__c.7)
 432 0378 0E94 0000 		call UART_puts_p
 433 037c E091 0000 		lds r30,core
 434 0380 F091 0000 		lds r31,core+1
 435 0384 EC55      		subi r30,92
 436 0386 FF4F      		sbci r31,-1
 437 0388 6081      		ld r22,Z
 438 038a 7181      		ldd r23,Z+1
 439 038c 8281      		ldd r24,Z+2
 440 038e 9381      		ldd r25,Z+3
 441 0390 0E94 0000 		call UART_puthex32
 442 0394 80E0      		ldi r24,lo8(__c.6)
 443 0396 90E0      		ldi r25,hi8(__c.6)
 444 0398 0E94 0000 		call UART_puts_p
 445 039c E091 0000 		lds r30,core
 446 03a0 F091 0000 		lds r31,core+1
 447 03a4 E855      		subi r30,88
 448 03a6 FF4F      		sbci r31,-1
 449 03a8 6081      		ld r22,Z
 450 03aa 7181      		ldd r23,Z+1
 451 03ac 8281      		ldd r24,Z+2
 452 03ae 9381      		ldd r25,Z+3
 453 03b0 0E94 0000 		call UART_puthex32
 454 03b4 80E0      		ldi r24,lo8(__c.5)
 455 03b6 90E0      		ldi r25,hi8(__c.5)
 456 03b8 0E94 0000 		call UART_puts_p
 457 03bc E091 0000 		lds r30,core
 458 03c0 F091 0000 		lds r31,core+1
 459 03c4 E455      		subi r30,84
 460 03c6 FF4F      		sbci r31,-1
 461 03c8 6081      		ld r22,Z
 462 03ca 7181      		ldd r23,Z+1
 463 03cc 8281      		ldd r24,Z+2
 464 03ce 9381      		ldd r25,Z+3
 465 03d0 0E94 0000 		call UART_puthex32
 466 03d4 80E0      		ldi r24,lo8(__c.4)
 467 03d6 90E0      		ldi r25,hi8(__c.4)
 468 03d8 0E94 0000 		call UART_puts_p
 469 03dc E091 0000 		lds r30,core
 470 03e0 F091 0000 		lds r31,core+1
 471 03e4 E055      		subi r30,80
 472 03e6 FF4F      		sbci r31,-1
 473 03e8 6081      		ld r22,Z
 474 03ea 7181      		ldd r23,Z+1
 475 03ec 8281      		ldd r24,Z+2
 476 03ee 9381      		ldd r25,Z+3
 477 03f0 0E94 0000 		call UART_puthex32
 478 03f4 80E0      		ldi r24,lo8(__c.3)
 479 03f6 90E0      		ldi r25,hi8(__c.3)
 480 03f8 0E94 0000 		call UART_puts_p
 481 03fc E091 0000 		lds r30,core
 482 0400 F091 0000 		lds r31,core+1
 483 0404 EC54      		subi r30,76
 484 0406 FF4F      		sbci r31,-1
 485 0408 6081      		ld r22,Z
 486 040a 7181      		ldd r23,Z+1
 487 040c 8281      		ldd r24,Z+2
 488 040e 9381      		ldd r25,Z+3
 489 0410 0E94 0000 		call UART_puthex32
 490 0414 80E0      		ldi r24,lo8(__c.2)
 491 0416 90E0      		ldi r25,hi8(__c.2)
 492 0418 0E94 0000 		call UART_puts_p
 493 041c E091 0000 		lds r30,core
 494 0420 F091 0000 		lds r31,core+1
 495 0424 E854      		subi r30,72
 496 0426 FF4F      		sbci r31,-1
 497 0428 6081      		ld r22,Z
 498 042a 7181      		ldd r23,Z+1
 499 042c 8281      		ldd r24,Z+2
 500 042e 9381      		ldd r25,Z+3
 501 0430 0E94 0000 		call UART_puthex32
 502 0434 80E0      		ldi r24,lo8(__c.1)
 503 0436 90E0      		ldi r25,hi8(__c.1)
 504 0438 0E94 0000 		call UART_puts_p
 505 043c E091 0000 		lds r30,core
 506 0440 F091 0000 		lds r31,core+1
 507 0444 E454      		subi r30,68
 508 0446 FF4F      		sbci r31,-1
 509 0448 6081      		ld r22,Z
 510 044a 7181      		ldd r23,Z+1
 511 044c 8281      		ldd r24,Z+2
 512 044e 9381      		ldd r25,Z+3
 513 0450 0E94 0000 		call UART_puthex32
 514 0454 80E0      		ldi r24,lo8(__c.0)
 515 0456 90E0      		ldi r25,hi8(__c.0)
 516               	/* epilogue start */
 517 0458 DF91      		pop r29
 518 045a CF91      		pop r28
 519 045c 0C94 0000 		jmp UART_puts_p
 521               	.global	read_buf
 523               	read_buf:
 524 0460 4F92      		push r4
 525 0462 5F92      		push r5
 526 0464 6F92      		push r6
 527 0466 7F92      		push r7
 528 0468 8F92      		push r8
 529 046a 9F92      		push r9
 530 046c AF92      		push r10
 531 046e BF92      		push r11
 532 0470 CF92      		push r12
 533 0472 DF92      		push r13
 534 0474 EF92      		push r14
 535 0476 FF92      		push r15
 536 0478 0F93      		push r16
 537 047a 1F93      		push r17
 538 047c CF93      		push r28
 539 047e DF93      		push r29
 540 0480 0F92      		push __tmp_reg__
 541 0482 CDB7      		in r28,__SP_L__
 542 0484 DEB7      		in r29,__SP_H__
 543               	/* prologue: function */
 544               	/* frame size = 1 */
 545               	/* stack size = 17 */
 546               	.L__stack_usage = 17
 547 0486 382F      		mov r19,r24
 548 0488 292F      		mov r18,r25
 549 048a CB01      		movw r24,r22
 550 048c A32F      		mov r26,r19
 551 048e B22F      		mov r27,r18
 552 0490 B42E      		mov r11,r20
 553 0492 40FD      		sbrc r20,0
 554 0494 00C0      		rjmp .L15
 555 0496 BC01      		movw r22,r24
 556 0498 CD01      		movw r24,r26
 557 049a 39E0      		ldi r19,9
 558               		1:
 559 049c 9695      		lsr r25
 560 049e 8795      		ror r24
 561 04a0 7795      		ror r23
 562 04a2 6795      		ror r22
 563 04a4 3A95      		dec r19
 564 04a6 01F4      		brne 1b
 565               	.L16:
 566 04a8 6093 0000 		sts s.29,r22
 567 04ac 7093 0000 		sts s.29+1,r23
 568 04b0 8093 0000 		sts s.29+2,r24
 569 04b4 9093 0000 		sts s.29+3,r25
 570 04b8 0091 0000 		lds r16,pool+1550
 571 04bc 1091 0000 		lds r17,pool+1550+1
 572 04c0 2091 0000 		lds r18,pool+1550+2
 573 04c4 3091 0000 		lds r19,pool+1550+3
 574 04c8 0617      		cp r16,r22
 575 04ca 1707      		cpc r17,r23
 576 04cc 2807      		cpc r18,r24
 577 04ce 3907      		cpc r19,r25
 578 04d0 01F4      		brne .+2
 579 04d2 00C0      		rjmp .L43
 580 04d4 0091 0000 		lds r16,pool+1031
 581 04d8 1091 0000 		lds r17,pool+1031+1
 582 04dc 2091 0000 		lds r18,pool+1031+2
 583 04e0 3091 0000 		lds r19,pool+1031+3
 584 04e4 0617      		cp r16,r22
 585 04e6 1707      		cpc r17,r23
 586 04e8 2807      		cpc r18,r24
 587 04ea 3907      		cpc r19,r25
 588 04ec 01F4      		brne .+2
 589 04ee 00C0      		rjmp .L44
 590 04f0 0091 0000 		lds r16,pool+512
 591 04f4 1091 0000 		lds r17,pool+512+1
 592 04f8 2091 0000 		lds r18,pool+512+2
 593 04fc 3091 0000 		lds r19,pool+512+3
 594 0500 0617      		cp r16,r22
 595 0502 1707      		cpc r17,r23
 596 0504 2807      		cpc r18,r24
 597 0506 3907      		cpc r19,r25
 598 0508 01F4      		brne .+2
 599 050a 00C0      		rjmp .L45
 600 050c 4091 0000 		lds r20,pool+516
 601 0510 5091 0000 		lds r21,pool+516+1
 602 0514 2091 0000 		lds r18,pool+1035
 603 0518 3091 0000 		lds r19,pool+1035+1
 604 051c E2E0      		ldi r30,lo8(2)
 605 051e BE16      		cp r11,r30
 606 0520 00F4      		brsh .+2
 607 0522 00C0      		rjmp .L18
 608 0524 4F3F      		cpi r20,-1
 609 0526 5F4F      		sbci r21,-1
 610 0528 01F4      		brne .+2
 611 052a 00C0      		rjmp .L54
 612 052c 2F3F      		cpi r18,-1
 613 052e 3F4F      		sbci r19,-1
 614 0530 01F4      		brne .+2
 615 0532 00C0      		rjmp .L55
 616 0534 1092 0000 		sts pool+1554+1,__zero_reg__
 617 0538 1092 0000 		sts pool+1554,__zero_reg__
 618               	.L22:
 619 053c 0EE0      		ldi r16,lo8(14)
 620 053e 14E0      		ldi r17,lo8(4)
 621 0540 B2E0      		ldi r27,lo8(2)
 622 0542 CB2E      		mov r12,r27
 623 0544 D12C      		mov r13,__zero_reg__
 624 0546 22E0      		ldi r18,lo8(2)
 625 0548 A22E      		mov r10,r18
 626               	.L23:
 627 054a 0050      		subi r16,lo8(-(pool))
 628 054c 1040      		sbci r17,hi8(-(pool))
 629               	.L25:
 630 054e 27E0      		ldi r18,lo8(7)
 631 0550 32E0      		ldi r19,lo8(2)
 632 0552 C29E      		mul r12,r18
 633 0554 F001      		movw r30,r0
 634 0556 C39E      		mul r12,r19
 635 0558 F00D      		add r31,r0
 636 055a D29E      		mul r13,r18
 637 055c F00D      		add r31,r0
 638 055e 1124      		clr r1
 639 0560 E050      		subi r30,lo8(-(pool+518))
 640 0562 F040      		sbci r31,hi8(-(pool+518))
 641 0564 2081      		ld r18,Z
 642 0566 2130      		cpi r18,lo8(1)
 643 0568 01F4      		brne .+2
 644 056a 00C0      		rjmp .L41
 645 056c FE01      		movw r30,r28
 646 056e 3196      		adiw r30,1
 647 0570 7F01      		movw r14,r30
 648               	.L26:
 649 0572 47E0      		ldi r20,lo8(7)
 650 0574 52E0      		ldi r21,lo8(2)
 651 0576 C49E      		mul r12,r20
 652 0578 9001      		movw r18,r0
 653 057a C59E      		mul r12,r21
 654 057c 300D      		add r19,r0
 655 057e D49E      		mul r13,r20
 656 0580 300D      		add r19,r0
 657 0582 1124      		clr r1
 658 0584 A901      		movw r20,r18
 659 0586 4050      		subi r20,lo8(-(pool))
 660 0588 5040      		sbci r21,hi8(-(pool))
 661 058a 2050      		subi r18,lo8(-(pool+512))
 662 058c 3040      		sbci r19,hi8(-(pool+512))
 663 058e F901      		movw r30,r18
 664 0590 6083      		st Z,r22
 665 0592 7183      		std Z+1,r23
 666 0594 8283      		std Z+2,r24
 667 0596 9383      		std Z+3,r25
 668 0598 F2E0      		ldi r31,lo8(2)
 669 059a BF16      		cp r11,r31
 670 059c 00F4      		brsh .+2
 671 059e 00C0      		rjmp .L31
 672               	.L40:
 673 05a0 27E0      		ldi r18,lo8(7)
 674 05a2 32E0      		ldi r19,lo8(2)
 675 05a4 C29E      		mul r12,r18
 676 05a6 F001      		movw r30,r0
 677 05a8 C39E      		mul r12,r19
 678 05aa F00D      		add r31,r0
 679 05ac D29E      		mul r13,r18
 680 05ae F00D      		add r31,r0
 681 05b0 1124      		clr r1
 682 05b2 E050      		subi r30,lo8(-(pool+516))
 683 05b4 F040      		sbci r31,hi8(-(pool+516))
 684 05b6 2FEF      		ldi r18,lo8(-1)
 685 05b8 3FEF      		ldi r19,lo8(-1)
 686 05ba 3183      		std Z+1,r19
 687 05bc 2083      		st Z,r18
 688 05be 4090 0000 		lds r4,icache_miss
 689 05c2 5090 0000 		lds r5,icache_miss+1
 690 05c6 6090 0000 		lds r6,icache_miss+2
 691 05ca 7090 0000 		lds r7,icache_miss+3
 692 05ce 2FEF      		ldi r18,-1
 693 05d0 421A      		sub r4,r18
 694 05d2 520A      		sbc r5,r18
 695 05d4 620A      		sbc r6,r18
 696 05d6 720A      		sbc r7,r18
 697 05d8 4092 0000 		sts icache_miss,r4
 698 05dc 5092 0000 		sts icache_miss+1,r5
 699 05e0 6092 0000 		sts icache_miss+2,r6
 700 05e4 7092 0000 		sts icache_miss+3,r7
 701               	.L33:
 702 05e8 4AE0      		ldi r20,lo8(10)
 703 05ea D42E      		mov r13,r20
 704 05ec 00C0      		rjmp .L32
 705               	.L35:
 706 05ee 2FEF      		ldi r18,lo8(319999)
 707 05f0 31EE      		ldi r19,hi8(319999)
 708 05f2 44E0      		ldi r20,hlo8(319999)
 709 05f4 2150      	1:	subi r18,1
 710 05f6 3040      		sbci r19,0
 711 05f8 4040      		sbci r20,0
 712 05fa 01F4      		brne 1b
 713 05fc 00C0      		rjmp .
 714 05fe 0000      		nop
 715 0600 6091 0000 		lds r22,s.29
 716 0604 7091 0000 		lds r23,s.29+1
 717 0608 8091 0000 		lds r24,s.29+2
 718 060c 9091 0000 		lds r25,s.29+3
 719               	.L32:
 720 0610 9701      		movw r18,r14
 721 0612 A801      		movw r20,r16
 722 0614 0E94 0000 		call SD_readSingleBlock
 723 0618 8981      		ldd r24,Y+1
 724 061a 8031      		cpi r24,lo8(16)
 725 061c 00F4      		brsh .L14
 726 061e DA94      		dec r13
 727 0620 01F4      		brne .L35
 728 0622 80E0      		ldi r24,lo8(__c.25)
 729 0624 90E0      		ldi r25,hi8(__c.25)
 730 0626 0E94 0000 		call UART_puts_p
 731 062a 6091 0000 		lds r22,s.29
 732 062e 7091 0000 		lds r23,s.29+1
 733 0632 8091 0000 		lds r24,s.29+2
 734 0636 9091 0000 		lds r25,s.29+3
 735 063a 0E94 0000 		call UART_puthex32
 736 063e 80E0      		ldi r24,lo8(__c.24)
 737 0640 90E0      		ldi r25,hi8(__c.24)
 738 0642 0E94 0000 		call UART_puts_p
 739 0646 8981      		ldd r24,Y+1
 740 0648 0E94 0000 		call SD_printDataErrToken
 741 064c 0E94 0000 		call dump_state
 742 0650 80E0      		ldi r24,lo8(__c.23)
 743 0652 90E0      		ldi r25,hi8(__c.23)
 744 0654 0E94 0000 		call UART_puts_p
 745               	.L36:
 746 0658 00C0      		rjmp .L36
 747               	.L44:
 748 065a AA24      		clr r10
 749 065c A394      		inc r10
 750               	.L17:
 751 065e 82E0      		ldi r24,lo8(2)
 752 0660 B816      		cp r11,r24
 753 0662 00F0      		brlo .L38
 754               	.L56:
 755 0664 8091 0000 		lds r24,icache_hit
 756 0668 9091 0000 		lds r25,icache_hit+1
 757 066c A091 0000 		lds r26,icache_hit+2
 758 0670 B091 0000 		lds r27,icache_hit+3
 759 0674 0196      		adiw r24,1
 760 0676 A11D      		adc r26,__zero_reg__
 761 0678 B11D      		adc r27,__zero_reg__
 762 067a 8093 0000 		sts icache_hit,r24
 763 067e 9093 0000 		sts icache_hit+1,r25
 764 0682 A093 0000 		sts icache_hit+2,r26
 765 0686 B093 0000 		sts icache_hit+3,r27
 766               	.L14:
 767 068a 8A2D      		mov r24,r10
 768               	/* epilogue start */
 769 068c 0F90      		pop __tmp_reg__
 770 068e DF91      		pop r29
 771 0690 CF91      		pop r28
 772 0692 1F91      		pop r17
 773 0694 0F91      		pop r16
 774 0696 FF90      		pop r15
 775 0698 EF90      		pop r14
 776 069a DF90      		pop r13
 777 069c CF90      		pop r12
 778 069e BF90      		pop r11
 779 06a0 AF90      		pop r10
 780 06a2 9F90      		pop r9
 781 06a4 8F90      		pop r8
 782 06a6 7F90      		pop r7
 783 06a8 6F90      		pop r6
 784 06aa 5F90      		pop r5
 785 06ac 4F90      		pop r4
 786 06ae 0895      		ret
 787               	.L15:
 788 06b0 8091 0000 		lds r24,s.29
 789 06b4 9091 0000 		lds r25,s.29+1
 790 06b8 A091 0000 		lds r26,s.29+2
 791 06bc B091 0000 		lds r27,s.29+3
 792 06c0 BC01      		movw r22,r24
 793 06c2 CD01      		movw r24,r26
 794 06c4 6F5F      		subi r22,-1
 795 06c6 7F4F      		sbci r23,-1
 796 06c8 8F4F      		sbci r24,-1
 797 06ca 9F4F      		sbci r25,-1
 798 06cc 00C0      		rjmp .L16
 799               	.L43:
 800 06ce 32E0      		ldi r19,lo8(2)
 801 06d0 A32E      		mov r10,r19
 802 06d2 82E0      		ldi r24,lo8(2)
 803 06d4 B816      		cp r11,r24
 804 06d6 00F4      		brsh .L56
 805               	.L38:
 806 06d8 8091 0000 		lds r24,dcache_hit
 807 06dc 9091 0000 		lds r25,dcache_hit+1
 808 06e0 A091 0000 		lds r26,dcache_hit+2
 809 06e4 B091 0000 		lds r27,dcache_hit+3
 810 06e8 0196      		adiw r24,1
 811 06ea A11D      		adc r26,__zero_reg__
 812 06ec B11D      		adc r27,__zero_reg__
 813 06ee 8093 0000 		sts dcache_hit,r24
 814 06f2 9093 0000 		sts dcache_hit+1,r25
 815 06f6 A093 0000 		sts dcache_hit+2,r26
 816 06fa B093 0000 		sts dcache_hit+3,r27
 817 06fe 00C0      		rjmp .L14
 818               	.L54:
 819 0700 1092 0000 		sts pool+516+1,__zero_reg__
 820 0704 1092 0000 		sts pool+516,__zero_reg__
 821 0708 40E0      		ldi r20,0
 822 070a 50E0      		ldi r21,0
 823               	.L18:
 824 070c E091 0000 		lds r30,pool+1554
 825 0710 F091 0000 		lds r31,pool+1554+1
 826 0714 2E17      		cp r18,r30
 827 0716 3F07      		cpc r19,r31
 828 0718 00F0      		brlo .+2
 829 071a 00C0      		rjmp .L57
 830 071c 07E0      		ldi r16,lo8(7)
 831 071e 12E0      		ldi r17,lo8(2)
 832 0720 CC24      		clr r12
 833 0722 C394      		inc r12
 834 0724 D12C      		mov r13,__zero_reg__
 835 0726 AA24      		clr r10
 836 0728 A394      		inc r10
 837               	.L24:
 838 072a 4217      		cp r20,r18
 839 072c 5307      		cpc r21,r19
 840 072e 00F0      		brlo .+2
 841 0730 00C0      		rjmp .L23
 842 0732 00E0      		ldi r16,lo8(pool)
 843 0734 10E0      		ldi r17,hi8(pool)
 844 0736 C12C      		mov r12,__zero_reg__
 845 0738 D12C      		mov r13,__zero_reg__
 846 073a A12C      		mov r10,__zero_reg__
 847 073c 00C0      		rjmp .L25
 848               	.L45:
 849 073e A12C      		mov r10,__zero_reg__
 850 0740 00C0      		rjmp .L17
 851               	.L58:
 852 0742 00E0      		ldi r16,lo8(pool+519)
 853 0744 10E0      		ldi r17,hi8(pool+519)
 854 0746 CC24      		clr r12
 855 0748 C394      		inc r12
 856 074a D12C      		mov r13,__zero_reg__
 857               	.L41:
 858 074c 5AE0      		ldi r21,lo8(10)
 859 074e 752E      		mov r7,r21
 860 0750 9E01      		movw r18,r28
 861 0752 2F5F      		subi r18,-1
 862 0754 3F4F      		sbci r19,-1
 863 0756 7901      		movw r14,r18
 864 0758 27E0      		ldi r18,lo8(7)
 865 075a 32E0      		ldi r19,lo8(2)
 866 075c C29E      		mul r12,r18
 867 075e C001      		movw r24,r0
 868 0760 C39E      		mul r12,r19
 869 0762 900D      		add r25,r0
 870 0764 D29E      		mul r13,r18
 871 0766 900D      		add r25,r0
 872 0768 1124      		clr r1
 873 076a FC01      		movw r30,r24
 874 076c E050      		subi r30,lo8(-(pool+512))
 875 076e F040      		sbci r31,hi8(-(pool+512))
 876 0770 4F01      		movw r8,r30
 877 0772 00C0      		rjmp .L27
 878               	.L29:
 879 0774 FFEF      		ldi r31,lo8(319999)
 880 0776 21EE      		ldi r18,hi8(319999)
 881 0778 34E0      		ldi r19,hlo8(319999)
 882 077a F150      	1:	subi r31,1
 883 077c 2040      		sbci r18,0
 884 077e 3040      		sbci r19,0
 885 0780 01F4      		brne 1b
 886 0782 00C0      		rjmp .
 887 0784 0000      		nop
 888               	.L27:
 889 0786 F401      		movw r30,r8
 890 0788 6081      		ld r22,Z
 891 078a 7181      		ldd r23,Z+1
 892 078c 8281      		ldd r24,Z+2
 893 078e 9381      		ldd r25,Z+3
 894 0790 9701      		movw r18,r14
 895 0792 A801      		movw r20,r16
 896 0794 0E94 0000 		call SD_writeSingleBlock
 897 0798 8981      		ldd r24,Y+1
 898 079a 8530      		cpi r24,lo8(5)
 899 079c 01F4      		brne .+2
 900 079e 00C0      		rjmp .L28
 901 07a0 8031      		cpi r24,lo8(16)
 902 07a2 00F0      		brlo .+2
 903 07a4 00C0      		rjmp .L28
 904 07a6 7A94      		dec r7
 905 07a8 01F4      		brne .L29
 906 07aa 80E0      		ldi r24,lo8(__c.28)
 907 07ac 90E0      		ldi r25,hi8(__c.28)
 908 07ae 0E94 0000 		call UART_puts_p
 909 07b2 F401      		movw r30,r8
 910 07b4 6081      		ld r22,Z
 911 07b6 7181      		ldd r23,Z+1
 912 07b8 8281      		ldd r24,Z+2
 913 07ba 9381      		ldd r25,Z+3
 914 07bc 0E94 0000 		call UART_puthex32
 915 07c0 80E0      		ldi r24,lo8(__c.27)
 916 07c2 90E0      		ldi r25,hi8(__c.27)
 917 07c4 0E94 0000 		call UART_puts_p
 918 07c8 8981      		ldd r24,Y+1
 919 07ca 0E94 0000 		call SD_printDataErrToken
 920 07ce 0E94 0000 		call dump_state
 921 07d2 80E0      		ldi r24,lo8(__c.26)
 922 07d4 90E0      		ldi r25,hi8(__c.26)
 923 07d6 0E94 0000 		call UART_puts_p
 924               	.L30:
 925 07da 00C0      		rjmp .L30
 926               	.L31:
 927 07dc 4C5F      		subi r20,-4
 928 07de 5D4F      		sbci r21,-3
 929 07e0 FA01      		movw r30,r20
 930 07e2 1182      		std Z+1,__zero_reg__
 931 07e4 1082      		st Z,__zero_reg__
 932 07e6 4090 0000 		lds r4,dcache_miss
 933 07ea 5090 0000 		lds r5,dcache_miss+1
 934 07ee 6090 0000 		lds r6,dcache_miss+2
 935 07f2 7090 0000 		lds r7,dcache_miss+3
 936 07f6 FFEF      		ldi r31,-1
 937 07f8 4F1A      		sub r4,r31
 938 07fa 5F0A      		sbc r5,r31
 939 07fc 6F0A      		sbc r6,r31
 940 07fe 7F0A      		sbc r7,r31
 941 0800 4092 0000 		sts dcache_miss,r4
 942 0804 5092 0000 		sts dcache_miss+1,r5
 943 0808 6092 0000 		sts dcache_miss+2,r6
 944 080c 7092 0000 		sts dcache_miss+3,r7
 945 0810 00C0      		rjmp .L33
 946               	.L57:
 947 0812 9F01      		movw r18,r30
 948 0814 0EE0      		ldi r16,lo8(14)
 949 0816 14E0      		ldi r17,lo8(4)
 950 0818 F2E0      		ldi r31,lo8(2)
 951 081a CF2E      		mov r12,r31
 952 081c D12C      		mov r13,__zero_reg__
 953 081e A2E0      		ldi r26,lo8(2)
 954 0820 AA2E      		mov r10,r26
 955 0822 00C0      		rjmp .L24
 956               	.L28:
 957 0824 87E0      		ldi r24,lo8(7)
 958 0826 92E0      		ldi r25,lo8(2)
 959 0828 C89E      		mul r12,r24
 960 082a F001      		movw r30,r0
 961 082c C99E      		mul r12,r25
 962 082e F00D      		add r31,r0
 963 0830 D89E      		mul r13,r24
 964 0832 F00D      		add r31,r0
 965 0834 1124      		clr r1
 966 0836 E050      		subi r30,lo8(-(pool+518))
 967 0838 F040      		sbci r31,hi8(-(pool+518))
 968 083a 1082      		st Z,__zero_reg__
 969 083c 6091 0000 		lds r22,s.29
 970 0840 7091 0000 		lds r23,s.29+1
 971 0844 8091 0000 		lds r24,s.29+2
 972 0848 9091 0000 		lds r25,s.29+3
 973 084c 00C0      		rjmp .L26
 974               	.L55:
 975 084e 1092 0000 		sts pool+1035+1,__zero_reg__
 976 0852 1092 0000 		sts pool+1035,__zero_reg__
 977 0856 2091 0000 		lds r18,pool+1554
 978 085a 3091 0000 		lds r19,pool+1554+1
 979 085e 232B      		or r18,r19
 980 0860 01F4      		brne .+2
 981 0862 00C0      		rjmp .L22
 982 0864 A090 0000 		lds r10,pool+1037
 983 0868 F1E0      		ldi r31,lo8(1)
 984 086a AF16      		cp r10,r31
 985 086c 01F4      		brne .+2
 986 086e 00C0      		rjmp .L58
 987 0870 6093 0000 		sts pool+1031,r22
 988 0874 7093 0000 		sts pool+1031+1,r23
 989 0878 8093 0000 		sts pool+1031+2,r24
 990 087c 9093 0000 		sts pool+1031+3,r25
 991 0880 00E0      		ldi r16,lo8(pool+519)
 992 0882 10E0      		ldi r17,hi8(pool+519)
 993 0884 CC24      		clr r12
 994 0886 C394      		inc r12
 995 0888 D12C      		mov r13,__zero_reg__
 996 088a AA24      		clr r10
 997 088c A394      		inc r10
 998 088e FE01      		movw r30,r28
 999 0890 3196      		adiw r30,1
 1000 0892 7F01      		movw r14,r30
 1001 0894 00C0      		rjmp .L40
 1004               	load4:
 1005 0896 8F92      		push r8
 1006 0898 9F92      		push r9
 1007 089a AF92      		push r10
 1008 089c BF92      		push r11
 1009 089e CF92      		push r12
 1010 08a0 DF92      		push r13
 1011 08a2 EF92      		push r14
 1012 08a4 FF92      		push r15
 1013 08a6 0F93      		push r16
 1014 08a8 1F93      		push r17
 1015 08aa CF93      		push r28
 1016 08ac DF93      		push r29
 1017 08ae 00D0      		rcall .
 1018 08b0 0F92      		push __tmp_reg__
 1019 08b2 CDB7      		in r28,__SP_L__
 1020 08b4 DEB7      		in r29,__SP_H__
 1021               	/* prologue: function */
 1022               	/* frame size = 4 */
 1023               	/* stack size = 16 */
 1024               	.L__stack_usage = 16
 1025 08b6 6B01      		movw r12,r22
 1026 08b8 7C01      		movw r14,r24
 1027 08ba 8B01      		movw r16,r22
 1028 08bc 1170      		andi r17,1
 1029 08be 40E0      		ldi r20,0
 1030 08c0 C701      		movw r24,r14
 1031 08c2 B601      		movw r22,r12
 1032 08c4 0E94 0000 		call read_buf
 1033 08c8 0D3F      		cpi r16,-3
 1034 08ca 21E0      		ldi r18,1
 1035 08cc 1207      		cpc r17,r18
 1036 08ce 00F4      		brsh .L65
 1037 08d0 47E0      		ldi r20,lo8(7)
 1038 08d2 52E0      		ldi r21,lo8(2)
 1039 08d4 849F      		mul r24,r20
 1040 08d6 9001      		movw r18,r0
 1041 08d8 859F      		mul r24,r21
 1042 08da 300D      		add r19,r0
 1043 08dc 1124      		clr __zero_reg__
 1044 08de 020F      		add r16,r18
 1045 08e0 131F      		adc r17,r19
 1046 08e2 F801      		movw r30,r16
 1047 08e4 E050      		subi r30,lo8(-(pool))
 1048 08e6 F040      		sbci r31,hi8(-(pool))
 1049 08e8 5081      		ld r21,Z
 1050 08ea 4181      		ldd r20,Z+1
 1051 08ec 9281      		ldd r25,Z+2
 1052 08ee 8381      		ldd r24,Z+3
 1053 08f0 5983      		std Y+1,r21
 1054 08f2 4A83      		std Y+2,r20
 1055 08f4 9B83      		std Y+3,r25
 1056 08f6 8C83      		std Y+4,r24
 1057 08f8 F901      		movw r30,r18
 1058 08fa E050      		subi r30,lo8(-(pool+516))
 1059 08fc F040      		sbci r31,hi8(-(pool+516))
 1060 08fe 8081      		ld r24,Z
 1061 0900 9181      		ldd r25,Z+1
 1062 0902 8E3F      		cpi r24,-2
 1063 0904 2FEF      		ldi r18,-1
 1064 0906 9207      		cpc r25,r18
 1065 0908 00F4      		brsh .L63
 1066 090a 0296      		adiw r24,2
 1067 090c 9183      		std Z+1,r25
 1068 090e 8083      		st Z,r24
 1069               	.L63:
 1070 0910 6981      		ldd r22,Y+1
 1071 0912 7A81      		ldd r23,Y+2
 1072 0914 8B81      		ldd r24,Y+3
 1073 0916 9C81      		ldd r25,Y+4
 1074               	/* epilogue start */
 1075 0918 0F90      		pop __tmp_reg__
 1076 091a 0F90      		pop __tmp_reg__
 1077 091c 0F90      		pop __tmp_reg__
 1078 091e 0F90      		pop __tmp_reg__
 1079 0920 DF91      		pop r29
 1080 0922 CF91      		pop r28
 1081 0924 1F91      		pop r17
 1082 0926 0F91      		pop r16
 1083 0928 FF90      		pop r15
 1084 092a EF90      		pop r14
 1085 092c DF90      		pop r13
 1086 092e CF90      		pop r12
 1087 0930 BF90      		pop r11
 1088 0932 AF90      		pop r10
 1089 0934 9F90      		pop r9
 1090 0936 8F90      		pop r8
 1091 0938 0895      		ret
 1092               	.L65:
 1093 093a 20E0      		ldi r18,0
 1094 093c 32E0      		ldi r19,lo8(2)
 1095 093e 5901      		movw r10,r18
 1096 0940 A01A      		sub r10,r16
 1097 0942 B10A      		sbc r11,r17
 1098 0944 97E0      		ldi r25,lo8(7)
 1099 0946 892E      		mov r8,r25
 1100 0948 92E0      		ldi r25,lo8(2)
 1101 094a 992E      		mov r9,r25
 1102 094c 889D      		mul r24,r8
 1103 094e B001      		movw r22,r0
 1104 0950 899D      		mul r24,r9
 1105 0952 700D      		add r23,r0
 1106 0954 1124      		clr __zero_reg__
 1107 0956 600F      		add r22,r16
 1108 0958 711F      		adc r23,r17
 1109 095a 6050      		subi r22,lo8(-(pool))
 1110 095c 7040      		sbci r23,hi8(-(pool))
 1111 095e A501      		movw r20,r10
 1112 0960 CE01      		movw r24,r28
 1113 0962 0196      		adiw r24,1
 1114 0964 0E94 0000 		call memcpy
 1115 0968 41E0      		ldi r20,lo8(1)
 1116 096a C701      		movw r24,r14
 1117 096c B601      		movw r22,r12
 1118 096e 0E94 0000 		call read_buf
 1119 0972 A801      		movw r20,r16
 1120 0974 4C5F      		subi r20,-4
 1121 0976 5140      		sbci r21,1
 1122 0978 889D      		mul r24,r8
 1123 097a 8001      		movw r16,r0
 1124 097c 899D      		mul r24,r9
 1125 097e 100D      		add r17,r0
 1126 0980 1124      		clr __zero_reg__
 1127 0982 0050      		subi r16,lo8(-(pool))
 1128 0984 1040      		sbci r17,hi8(-(pool))
 1129 0986 B801      		movw r22,r16
 1130 0988 81E0      		ldi r24,lo8(1)
 1131 098a 90E0      		ldi r25,0
 1132 098c 8C0F      		add r24,r28
 1133 098e 9D1F      		adc r25,r29
 1134 0990 8A0D      		add r24,r10
 1135 0992 9B1D      		adc r25,r11
 1136 0994 0E94 0000 		call memcpy
 1137 0998 F801      		movw r30,r16
 1138 099a EC5F      		subi r30,-4
 1139 099c FD4F      		sbci r31,-3
 1140 099e 8081      		ld r24,Z
 1141 09a0 9181      		ldd r25,Z+1
 1142 09a2 8E3F      		cpi r24,-2
 1143 09a4 2FEF      		ldi r18,-1
 1144 09a6 9207      		cpc r25,r18
 1145 09a8 00F0      		brlo .+2
 1146 09aa 00C0      		rjmp .L63
 1147 09ac 0296      		adiw r24,2
 1148 09ae 9183      		std Z+1,r25
 1149 09b0 8083      		st Z,r24
 1150 09b2 00C0      		rjmp .L63
 1153               	store4.isra.0:
 1154 09b4 4F92      		push r4
 1155 09b6 5F92      		push r5
 1156 09b8 6F92      		push r6
 1157 09ba 7F92      		push r7
 1158 09bc 9F92      		push r9
 1159 09be AF92      		push r10
 1160 09c0 BF92      		push r11
 1161 09c2 CF92      		push r12
 1162 09c4 DF92      		push r13
 1163 09c6 EF92      		push r14
 1164 09c8 FF92      		push r15
 1165 09ca 0F93      		push r16
 1166 09cc 1F93      		push r17
 1167 09ce CF93      		push r28
 1168 09d0 DF93      		push r29
 1169 09d2 00D0      		rcall .
 1170 09d4 0F92      		push __tmp_reg__
 1171 09d6 CDB7      		in r28,__SP_L__
 1172 09d8 DEB7      		in r29,__SP_H__
 1173               	/* prologue: function */
 1174               	/* frame size = 4 */
 1175               	/* stack size = 19 */
 1176               	.L__stack_usage = 19
 1177 09da 2B01      		movw r4,r22
 1178 09dc 3C01      		movw r6,r24
 1179 09de 2983      		std Y+1,r18
 1180 09e0 3A83      		std Y+2,r19
 1181 09e2 4B83      		std Y+3,r20
 1182 09e4 5C83      		std Y+4,r21
 1183 09e6 8B01      		movw r16,r22
 1184 09e8 1170      		andi r17,1
 1185 09ea 40E0      		ldi r20,0
 1186 09ec C301      		movw r24,r6
 1187 09ee B201      		movw r22,r4
 1188 09f0 0E94 0000 		call read_buf
 1189 09f4 282F      		mov r18,r24
 1190 09f6 3981      		ldd r19,Y+1
 1191 09f8 0D3F      		cpi r16,-3
 1192 09fa 81E0      		ldi r24,1
 1193 09fc 1807      		cpc r17,r24
 1194 09fe 00F4      		brsh .L75
 1195 0a00 47E0      		ldi r20,lo8(7)
 1196 0a02 52E0      		ldi r21,lo8(2)
 1197 0a04 249F      		mul r18,r20
 1198 0a06 C001      		movw r24,r0
 1199 0a08 259F      		mul r18,r21
 1200 0a0a 900D      		add r25,r0
 1201 0a0c 1124      		clr __zero_reg__
 1202 0a0e 8050      		subi r24,lo8(-(pool))
 1203 0a10 9040      		sbci r25,hi8(-(pool))
 1204 0a12 FC01      		movw r30,r24
 1205 0a14 E00F      		add r30,r16
 1206 0a16 F11F      		adc r31,r17
 1207 0a18 3083      		st Z,r19
 1208 0a1a 2A81      		ldd r18,Y+2
 1209 0a1c 2183      		std Z+1,r18
 1210 0a1e 2B81      		ldd r18,Y+3
 1211 0a20 2283      		std Z+2,r18
 1212 0a22 2C81      		ldd r18,Y+4
 1213 0a24 2383      		std Z+3,r18
 1214 0a26 FC01      		movw r30,r24
 1215 0a28 EA5F      		subi r30,-6
 1216 0a2a FD4F      		sbci r31,-3
 1217 0a2c 21E0      		ldi r18,lo8(1)
 1218 0a2e 2083      		st Z,r18
 1219 0a30 3297      		sbiw r30,2
 1220 0a32 8081      		ld r24,Z
 1221 0a34 9181      		ldd r25,Z+1
 1222 0a36 8F3F      		cpi r24,-1
 1223 0a38 9807      		cpc r25,r24
 1224 0a3a 01F0      		breq .L66
 1225 0a3c 0196      		adiw r24,1
 1226 0a3e 9183      		std Z+1,r25
 1227 0a40 8083      		st Z,r24
 1228               	.L66:
 1229               	/* epilogue start */
 1230 0a42 0F90      		pop __tmp_reg__
 1231 0a44 0F90      		pop __tmp_reg__
 1232 0a46 0F90      		pop __tmp_reg__
 1233 0a48 0F90      		pop __tmp_reg__
 1234 0a4a DF91      		pop r29
 1235 0a4c CF91      		pop r28
 1236 0a4e 1F91      		pop r17
 1237 0a50 0F91      		pop r16
 1238 0a52 FF90      		pop r15
 1239 0a54 EF90      		pop r14
 1240 0a56 DF90      		pop r13
 1241 0a58 CF90      		pop r12
 1242 0a5a BF90      		pop r11
 1243 0a5c AF90      		pop r10
 1244 0a5e 9F90      		pop r9
 1245 0a60 7F90      		pop r7
 1246 0a62 6F90      		pop r6
 1247 0a64 5F90      		pop r5
 1248 0a66 4F90      		pop r4
 1249 0a68 0895      		ret
 1250               	.L75:
 1251 0a6a 80E0      		ldi r24,0
 1252 0a6c 92E0      		ldi r25,lo8(2)
 1253 0a6e 7C01      		movw r14,r24
 1254 0a70 E01A      		sub r14,r16
 1255 0a72 F10A      		sbc r15,r17
 1256 0a74 87E0      		ldi r24,lo8(7)
 1257 0a76 A82E      		mov r10,r24
 1258 0a78 82E0      		ldi r24,lo8(2)
 1259 0a7a B82E      		mov r11,r24
 1260 0a7c 2A9D      		mul r18,r10
 1261 0a7e 6001      		movw r12,r0
 1262 0a80 2B9D      		mul r18,r11
 1263 0a82 D00C      		add r13,r0
 1264 0a84 1124      		clr __zero_reg__
 1265 0a86 C601      		movw r24,r12
 1266 0a88 800F      		add r24,r16
 1267 0a8a 911F      		adc r25,r17
 1268 0a8c A701      		movw r20,r14
 1269 0a8e BE01      		movw r22,r28
 1270 0a90 6F5F      		subi r22,-1
 1271 0a92 7F4F      		sbci r23,-1
 1272 0a94 8050      		subi r24,lo8(-(pool))
 1273 0a96 9040      		sbci r25,hi8(-(pool))
 1274 0a98 0E94 0000 		call memcpy
 1275 0a9c F601      		movw r30,r12
 1276 0a9e E050      		subi r30,lo8(-(pool+518))
 1277 0aa0 F040      		sbci r31,hi8(-(pool+518))
 1278 0aa2 9924      		clr r9
 1279 0aa4 9394      		inc r9
 1280 0aa6 9082      		st Z,r9
 1281 0aa8 41E0      		ldi r20,lo8(1)
 1282 0aaa C301      		movw r24,r6
 1283 0aac B201      		movw r22,r4
 1284 0aae 0E94 0000 		call read_buf
 1285 0ab2 8A9D      		mul r24,r10
 1286 0ab4 9001      		movw r18,r0
 1287 0ab6 8B9D      		mul r24,r11
 1288 0ab8 300D      		add r19,r0
 1289 0aba 1124      		clr __zero_reg__
 1290 0abc C901      		movw r24,r18
 1291 0abe 8050      		subi r24,lo8(-(pool))
 1292 0ac0 9040      		sbci r25,hi8(-(pool))
 1293 0ac2 6C01      		movw r12,r24
 1294 0ac4 A801      		movw r20,r16
 1295 0ac6 4C5F      		subi r20,-4
 1296 0ac8 5140      		sbci r21,1
 1297 0aca 61E0      		ldi r22,lo8(1)
 1298 0acc 70E0      		ldi r23,0
 1299 0ace 6C0F      		add r22,r28
 1300 0ad0 7D1F      		adc r23,r29
 1301 0ad2 6E0D      		add r22,r14
 1302 0ad4 7F1D      		adc r23,r15
 1303 0ad6 0E94 0000 		call memcpy
 1304 0ada F601      		movw r30,r12
 1305 0adc EA5F      		subi r30,-6
 1306 0ade FD4F      		sbci r31,-3
 1307 0ae0 9082      		st Z,r9
 1308 0ae2 3297      		sbiw r30,2
 1309 0ae4 8081      		ld r24,Z
 1310 0ae6 9181      		ldd r25,Z+1
 1311 0ae8 8F3F      		cpi r24,-1
 1312 0aea 9807      		cpc r25,r24
 1313 0aec 01F4      		brne .+2
 1314 0aee 00C0      		rjmp .L66
 1315 0af0 0196      		adiw r24,1
 1316 0af2 9183      		std Z+1,r25
 1317 0af4 8083      		st Z,r24
 1318 0af6 00C0      		rjmp .L66
 1321               	load2:
 1322 0af8 3F92      		push r3
 1323 0afa 4F92      		push r4
 1324 0afc 5F92      		push r5
 1325 0afe 6F92      		push r6
 1326 0b00 7F92      		push r7
 1327 0b02 8F92      		push r8
 1328 0b04 9F92      		push r9
 1329 0b06 AF92      		push r10
 1330 0b08 BF92      		push r11
 1331 0b0a CF92      		push r12
 1332 0b0c DF92      		push r13
 1333 0b0e EF92      		push r14
 1334 0b10 FF92      		push r15
 1335 0b12 0F93      		push r16
 1336 0b14 1F93      		push r17
 1337 0b16 CF93      		push r28
 1338 0b18 DF93      		push r29
 1339 0b1a 0F92      		push __tmp_reg__
 1340 0b1c CDB7      		in r28,__SP_L__
 1341 0b1e DEB7      		in r29,__SP_H__
 1342               	/* prologue: function */
 1343               	/* frame size = 1 */
 1344               	/* stack size = 18 */
 1345               	.L__stack_usage = 18
 1346 0b20 2B01      		movw r4,r22
 1347 0b22 3C01      		movw r6,r24
 1348 0b24 8B01      		movw r16,r22
 1349 0b26 1170      		andi r17,1
 1350 0b28 C301      		movw r24,r6
 1351 0b2a B201      		movw r22,r4
 1352 0b2c 29E0      		ldi r18,9
 1353               		1:
 1354 0b2e 9695      		lsr r25
 1355 0b30 8795      		ror r24
 1356 0b32 7795      		ror r23
 1357 0b34 6795      		ror r22
 1358 0b36 2A95      		dec r18
 1359 0b38 01F4      		brne 1b
 1360 0b3a 6093 0000 		sts s.29,r22
 1361 0b3e 7093 0000 		sts s.29+1,r23
 1362 0b42 8093 0000 		sts s.29+2,r24
 1363 0b46 9093 0000 		sts s.29+3,r25
 1364 0b4a C090 0000 		lds r12,pool+1550
 1365 0b4e D090 0000 		lds r13,pool+1550+1
 1366 0b52 E090 0000 		lds r14,pool+1550+2
 1367 0b56 F090 0000 		lds r15,pool+1550+3
 1368 0b5a 6C15      		cp r22,r12
 1369 0b5c 7D05      		cpc r23,r13
 1370 0b5e 8E05      		cpc r24,r14
 1371 0b60 9F05      		cpc r25,r15
 1372 0b62 01F4      		brne .+2
 1373 0b64 00C0      		rjmp .L94
 1374 0b66 C090 0000 		lds r12,pool+1031
 1375 0b6a D090 0000 		lds r13,pool+1031+1
 1376 0b6e E090 0000 		lds r14,pool+1031+2
 1377 0b72 F090 0000 		lds r15,pool+1031+3
 1378 0b76 6C15      		cp r22,r12
 1379 0b78 7D05      		cpc r23,r13
 1380 0b7a 8E05      		cpc r24,r14
 1381 0b7c 9F05      		cpc r25,r15
 1382 0b7e 01F4      		brne .+2
 1383 0b80 00C0      		rjmp .L95
 1384 0b82 C090 0000 		lds r12,pool+512
 1385 0b86 D090 0000 		lds r13,pool+512+1
 1386 0b8a E090 0000 		lds r14,pool+512+2
 1387 0b8e F090 0000 		lds r15,pool+512+3
 1388 0b92 6C15      		cp r22,r12
 1389 0b94 7D05      		cpc r23,r13
 1390 0b96 8E05      		cpc r24,r14
 1391 0b98 9F05      		cpc r25,r15
 1392 0b9a 01F4      		brne .+2
 1393 0b9c 00C0      		rjmp .L96
 1394 0b9e 4091 0000 		lds r20,pool+1554
 1395 0ba2 5091 0000 		lds r21,pool+1554+1
 1396 0ba6 2091 0000 		lds r18,pool+1035
 1397 0baa 3091 0000 		lds r19,pool+1035+1
 1398 0bae E7E0      		ldi r30,lo8(7)
 1399 0bb0 F2E0      		ldi r31,lo8(2)
 1400 0bb2 EE24      		clr r14
 1401 0bb4 E394      		inc r14
 1402 0bb6 F12C      		mov r15,__zero_reg__
 1403 0bb8 2417      		cp r18,r20
 1404 0bba 3507      		cpc r19,r21
 1405 0bbc 00F0      		brlo .+2
 1406 0bbe 00C0      		rjmp .L104
 1407 0bc0 4091 0000 		lds r20,pool+516
 1408 0bc4 5091 0000 		lds r21,pool+516+1
 1409 0bc8 4217      		cp r20,r18
 1410 0bca 5307      		cpc r21,r19
 1411 0bcc 00F4      		brsh .+2
 1412 0bce 00C0      		rjmp .L98
 1413               	.L106:
 1414 0bd0 9F01      		movw r18,r30
 1415 0bd2 2050      		subi r18,lo8(-(pool))
 1416 0bd4 3040      		sbci r19,hi8(-(pool))
 1417 0bd6 5901      		movw r10,r18
 1418               	.L79:
 1419 0bd8 47E0      		ldi r20,lo8(7)
 1420 0bda 52E0      		ldi r21,lo8(2)
 1421 0bdc E49E      		mul r14,r20
 1422 0bde 9001      		movw r18,r0
 1423 0be0 E59E      		mul r14,r21
 1424 0be2 300D      		add r19,r0
 1425 0be4 F49E      		mul r15,r20
 1426 0be6 300D      		add r19,r0
 1427 0be8 1124      		clr r1
 1428 0bea A901      		movw r20,r18
 1429 0bec 4050      		subi r20,lo8(-(pool))
 1430 0bee 5040      		sbci r21,hi8(-(pool))
 1431 0bf0 2050      		subi r18,lo8(-(pool+518))
 1432 0bf2 3040      		sbci r19,hi8(-(pool+518))
 1433 0bf4 F901      		movw r30,r18
 1434 0bf6 2081      		ld r18,Z
 1435 0bf8 2130      		cpi r18,lo8(1)
 1436 0bfa 01F4      		brne .+2
 1437 0bfc 00C0      		rjmp .L103
 1438 0bfe 9E01      		movw r18,r28
 1439 0c00 2F5F      		subi r18,-1
 1440 0c02 3F4F      		sbci r19,-1
 1441 0c04 6901      		movw r12,r18
 1442               	.L80:
 1443 0c06 47E0      		ldi r20,lo8(7)
 1444 0c08 52E0      		ldi r21,lo8(2)
 1445 0c0a E49E      		mul r14,r20
 1446 0c0c 9001      		movw r18,r0
 1447 0c0e E59E      		mul r14,r21
 1448 0c10 300D      		add r19,r0
 1449 0c12 F49E      		mul r15,r20
 1450 0c14 300D      		add r19,r0
 1451 0c16 1124      		clr r1
 1452 0c18 F901      		movw r30,r18
 1453 0c1a E050      		subi r30,lo8(-(pool+512))
 1454 0c1c F040      		sbci r31,hi8(-(pool+512))
 1455 0c1e 6083      		st Z,r22
 1456 0c20 7183      		std Z+1,r23
 1457 0c22 8283      		std Z+2,r24
 1458 0c24 9383      		std Z+3,r25
 1459 0c26 2050      		subi r18,lo8(-(pool+516))
 1460 0c28 3040      		sbci r19,hi8(-(pool+516))
 1461 0c2a F901      		movw r30,r18
 1462 0c2c 1182      		std Z+1,__zero_reg__
 1463 0c2e 1082      		st Z,__zero_reg__
 1464 0c30 2091 0000 		lds r18,dcache_miss
 1465 0c34 3091 0000 		lds r19,dcache_miss+1
 1466 0c38 4091 0000 		lds r20,dcache_miss+2
 1467 0c3c 5091 0000 		lds r21,dcache_miss+3
 1468 0c40 2F5F      		subi r18,-1
 1469 0c42 3F4F      		sbci r19,-1
 1470 0c44 4F4F      		sbci r20,-1
 1471 0c46 5F4F      		sbci r21,-1
 1472 0c48 2093 0000 		sts dcache_miss,r18
 1473 0c4c 3093 0000 		sts dcache_miss+1,r19
 1474 0c50 4093 0000 		sts dcache_miss+2,r20
 1475 0c54 5093 0000 		sts dcache_miss+3,r21
 1476 0c58 3AE0      		ldi r19,lo8(10)
 1477 0c5a 932E      		mov r9,r19
 1478 0c5c 00C0      		rjmp .L88
 1479               	.L86:
 1480 0c5e FFEF      		ldi r31,lo8(319999)
 1481 0c60 21EE      		ldi r18,hi8(319999)
 1482 0c62 34E0      		ldi r19,hlo8(319999)
 1483 0c64 F150      	1:	subi r31,1
 1484 0c66 2040      		sbci r18,0
 1485 0c68 3040      		sbci r19,0
 1486 0c6a 01F4      		brne 1b
 1487 0c6c 00C0      		rjmp .
 1488 0c6e 0000      		nop
 1489 0c70 6091 0000 		lds r22,s.29
 1490 0c74 7091 0000 		lds r23,s.29+1
 1491 0c78 8091 0000 		lds r24,s.29+2
 1492 0c7c 9091 0000 		lds r25,s.29+3
 1493               	.L88:
 1494 0c80 9601      		movw r18,r12
 1495 0c82 A501      		movw r20,r10
 1496 0c84 0E94 0000 		call SD_readSingleBlock
 1497 0c88 8981      		ldd r24,Y+1
 1498 0c8a 8031      		cpi r24,lo8(16)
 1499 0c8c 00F4      		brsh .L89
 1500 0c8e 9A94      		dec r9
 1501 0c90 01F4      		brne .L86
 1502 0c92 80E0      		ldi r24,lo8(__c.25)
 1503 0c94 90E0      		ldi r25,hi8(__c.25)
 1504 0c96 0E94 0000 		call UART_puts_p
 1505 0c9a 6091 0000 		lds r22,s.29
 1506 0c9e 7091 0000 		lds r23,s.29+1
 1507 0ca2 8091 0000 		lds r24,s.29+2
 1508 0ca6 9091 0000 		lds r25,s.29+3
 1509 0caa 0E94 0000 		call UART_puthex32
 1510 0cae 80E0      		ldi r24,lo8(__c.24)
 1511 0cb0 90E0      		ldi r25,hi8(__c.24)
 1512 0cb2 0E94 0000 		call UART_puts_p
 1513 0cb6 8981      		ldd r24,Y+1
 1514 0cb8 0E94 0000 		call SD_printDataErrToken
 1515 0cbc 0E94 0000 		call dump_state
 1516 0cc0 80E0      		ldi r24,lo8(__c.23)
 1517 0cc2 90E0      		ldi r25,hi8(__c.23)
 1518 0cc4 0E94 0000 		call UART_puts_p
 1519               	.L87:
 1520 0cc8 00C0      		rjmp .L87
 1521               	.L95:
 1522 0cca EE24      		clr r14
 1523 0ccc E394      		inc r14
 1524 0cce F12C      		mov r15,__zero_reg__
 1525               	.L77:
 1526 0cd0 8091 0000 		lds r24,dcache_hit
 1527 0cd4 9091 0000 		lds r25,dcache_hit+1
 1528 0cd8 A091 0000 		lds r26,dcache_hit+2
 1529 0cdc B091 0000 		lds r27,dcache_hit+3
 1530 0ce0 0196      		adiw r24,1
 1531 0ce2 A11D      		adc r26,__zero_reg__
 1532 0ce4 B11D      		adc r27,__zero_reg__
 1533 0ce6 8093 0000 		sts dcache_hit,r24
 1534 0cea 9093 0000 		sts dcache_hit+1,r25
 1535 0cee A093 0000 		sts dcache_hit+2,r26
 1536 0cf2 B093 0000 		sts dcache_hit+3,r27
 1537               	.L89:
 1538 0cf6 0F3F      		cpi r16,-1
 1539 0cf8 81E0      		ldi r24,1
 1540 0cfa 1807      		cpc r17,r24
 1541 0cfc 01F4      		brne .+2
 1542 0cfe 00C0      		rjmp .L105
 1543 0d00 27E0      		ldi r18,lo8(7)
 1544 0d02 32E0      		ldi r19,lo8(2)
 1545 0d04 E29E      		mul r14,r18
 1546 0d06 C001      		movw r24,r0
 1547 0d08 E39E      		mul r14,r19
 1548 0d0a 900D      		add r25,r0
 1549 0d0c F29E      		mul r15,r18
 1550 0d0e 900D      		add r25,r0
 1551 0d10 1124      		clr r1
 1552 0d12 080F      		add r16,r24
 1553 0d14 191F      		adc r17,r25
 1554 0d16 F801      		movw r30,r16
 1555 0d18 E050      		subi r30,lo8(-(pool))
 1556 0d1a F040      		sbci r31,hi8(-(pool))
 1557 0d1c 2181      		ldd r18,Z+1
 1558 0d1e 1081      		ld r17,Z
 1559 0d20 FC01      		movw r30,r24
 1560 0d22 E050      		subi r30,lo8(-(pool+516))
 1561 0d24 F040      		sbci r31,hi8(-(pool+516))
 1562 0d26 8081      		ld r24,Z
 1563 0d28 9181      		ldd r25,Z+1
 1564 0d2a 8E3F      		cpi r24,-2
 1565 0d2c 3FEF      		ldi r19,-1
 1566 0d2e 9307      		cpc r25,r19
 1567 0d30 00F4      		brsh .L93
 1568 0d32 0296      		adiw r24,2
 1569 0d34 9183      		std Z+1,r25
 1570 0d36 8083      		st Z,r24
 1571               	.L93:
 1572 0d38 922F      		mov r25,r18
 1573               	.L92:
 1574 0d3a 812F      		mov r24,r17
 1575               	/* epilogue start */
 1576 0d3c 0F90      		pop __tmp_reg__
 1577 0d3e DF91      		pop r29
 1578 0d40 CF91      		pop r28
 1579 0d42 1F91      		pop r17
 1580 0d44 0F91      		pop r16
 1581 0d46 FF90      		pop r15
 1582 0d48 EF90      		pop r14
 1583 0d4a DF90      		pop r13
 1584 0d4c CF90      		pop r12
 1585 0d4e BF90      		pop r11
 1586 0d50 AF90      		pop r10
 1587 0d52 9F90      		pop r9
 1588 0d54 8F90      		pop r8
 1589 0d56 7F90      		pop r7
 1590 0d58 6F90      		pop r6
 1591 0d5a 5F90      		pop r5
 1592 0d5c 4F90      		pop r4
 1593 0d5e 3F90      		pop r3
 1594 0d60 0895      		ret
 1595               	.L94:
 1596 0d62 22E0      		ldi r18,lo8(2)
 1597 0d64 E22E      		mov r14,r18
 1598 0d66 F12C      		mov r15,__zero_reg__
 1599 0d68 00C0      		rjmp .L77
 1600               	.L98:
 1601 0d6a E0E0      		ldi r30,lo8(pool)
 1602 0d6c AE2E      		mov r10,r30
 1603 0d6e E0E0      		ldi r30,hi8(pool)
 1604 0d70 BE2E      		mov r11,r30
 1605 0d72 E12C      		mov r14,__zero_reg__
 1606 0d74 F12C      		mov r15,__zero_reg__
 1607 0d76 00C0      		rjmp .L79
 1608               	.L104:
 1609 0d78 9A01      		movw r18,r20
 1610 0d7a EEE0      		ldi r30,lo8(14)
 1611 0d7c F4E0      		ldi r31,lo8(4)
 1612 0d7e B2E0      		ldi r27,lo8(2)
 1613 0d80 EB2E      		mov r14,r27
 1614 0d82 F12C      		mov r15,__zero_reg__
 1615 0d84 4091 0000 		lds r20,pool+516
 1616 0d88 5091 0000 		lds r21,pool+516+1
 1617 0d8c 4217      		cp r20,r18
 1618 0d8e 5307      		cpc r21,r19
 1619 0d90 00F0      		brlo .L98
 1620 0d92 00C0      		rjmp .L106
 1621               	.L96:
 1622 0d94 E12C      		mov r14,__zero_reg__
 1623 0d96 F12C      		mov r15,__zero_reg__
 1624 0d98 00C0      		rjmp .L77
 1625               	.L103:
 1626 0d9a 6AE0      		ldi r22,lo8(10)
 1627 0d9c 362E      		mov r3,r22
 1628 0d9e CE01      		movw r24,r28
 1629 0da0 0196      		adiw r24,1
 1630 0da2 6C01      		movw r12,r24
 1631 0da4 5E5F      		subi r21,-2
 1632 0da6 4A01      		movw r8,r20
 1633 0da8 00C0      		rjmp .L81
 1634               	.L83:
 1635 0daa FFEF      		ldi r31,lo8(319999)
 1636 0dac 21EE      		ldi r18,hi8(319999)
 1637 0dae 34E0      		ldi r19,hlo8(319999)
 1638 0db0 F150      	1:	subi r31,1
 1639 0db2 2040      		sbci r18,0
 1640 0db4 3040      		sbci r19,0
 1641 0db6 01F4      		brne 1b
 1642 0db8 00C0      		rjmp .
 1643 0dba 0000      		nop
 1644               	.L81:
 1645 0dbc F401      		movw r30,r8
 1646 0dbe 6081      		ld r22,Z
 1647 0dc0 7181      		ldd r23,Z+1
 1648 0dc2 8281      		ldd r24,Z+2
 1649 0dc4 9381      		ldd r25,Z+3
 1650 0dc6 9601      		movw r18,r12
 1651 0dc8 A501      		movw r20,r10
 1652 0dca 0E94 0000 		call SD_writeSingleBlock
 1653 0dce 8981      		ldd r24,Y+1
 1654 0dd0 8530      		cpi r24,lo8(5)
 1655 0dd2 01F4      		brne .+2
 1656 0dd4 00C0      		rjmp .L82
 1657 0dd6 8031      		cpi r24,lo8(16)
 1658 0dd8 00F0      		brlo .+2
 1659 0dda 00C0      		rjmp .L82
 1660 0ddc 3A94      		dec r3
 1661 0dde 01F4      		brne .L83
 1662 0de0 80E0      		ldi r24,lo8(__c.28)
 1663 0de2 90E0      		ldi r25,hi8(__c.28)
 1664 0de4 0E94 0000 		call UART_puts_p
 1665 0de8 F401      		movw r30,r8
 1666 0dea 6081      		ld r22,Z
 1667 0dec 7181      		ldd r23,Z+1
 1668 0dee 8281      		ldd r24,Z+2
 1669 0df0 9381      		ldd r25,Z+3
 1670 0df2 0E94 0000 		call UART_puthex32
 1671 0df6 80E0      		ldi r24,lo8(__c.27)
 1672 0df8 90E0      		ldi r25,hi8(__c.27)
 1673 0dfa 0E94 0000 		call UART_puts_p
 1674 0dfe 8981      		ldd r24,Y+1
 1675 0e00 0E94 0000 		call SD_printDataErrToken
 1676 0e04 0E94 0000 		call dump_state
 1677 0e08 80E0      		ldi r24,lo8(__c.26)
 1678 0e0a 90E0      		ldi r25,hi8(__c.26)
 1679 0e0c 0E94 0000 		call UART_puts_p
 1680               	.L84:
 1681 0e10 00C0      		rjmp .L84
 1682               	.L105:
 1683 0e12 87E0      		ldi r24,lo8(7)
 1684 0e14 C82E      		mov r12,r24
 1685 0e16 82E0      		ldi r24,lo8(2)
 1686 0e18 D82E      		mov r13,r24
 1687 0e1a EC9C      		mul r14,r12
 1688 0e1c F001      		movw r30,r0
 1689 0e1e ED9C      		mul r14,r13
 1690 0e20 F00D      		add r31,r0
 1691 0e22 FC9C      		mul r15,r12
 1692 0e24 F00D      		add r31,r0
 1693 0e26 1124      		clr r1
 1694 0e28 E050      		subi r30,lo8(-(pool+511))
 1695 0e2a F040      		sbci r31,hi8(-(pool+511))
 1696 0e2c 1081      		ld r17,Z
 1697 0e2e 41E0      		ldi r20,lo8(1)
 1698 0e30 C301      		movw r24,r6
 1699 0e32 B201      		movw r22,r4
 1700 0e34 0E94 0000 		call read_buf
 1701 0e38 8C9D      		mul r24,r12
 1702 0e3a F001      		movw r30,r0
 1703 0e3c 8D9D      		mul r24,r13
 1704 0e3e F00D      		add r31,r0
 1705 0e40 1124      		clr __zero_reg__
 1706 0e42 E050      		subi r30,lo8(-(pool))
 1707 0e44 F040      		sbci r31,hi8(-(pool))
 1708 0e46 9081      		ld r25,Z
 1709 0e48 EC5F      		subi r30,-4
 1710 0e4a FD4F      		sbci r31,-3
 1711 0e4c 2081      		ld r18,Z
 1712 0e4e 3181      		ldd r19,Z+1
 1713 0e50 2E3F      		cpi r18,-2
 1714 0e52 8FEF      		ldi r24,-1
 1715 0e54 3807      		cpc r19,r24
 1716 0e56 00F0      		brlo .+2
 1717 0e58 00C0      		rjmp .L92
 1718 0e5a 2E5F      		subi r18,-2
 1719 0e5c 3F4F      		sbci r19,-1
 1720 0e5e 3183      		std Z+1,r19
 1721 0e60 2083      		st Z,r18
 1722 0e62 00C0      		rjmp .L92
 1723               	.L82:
 1724 0e64 87E0      		ldi r24,lo8(7)
 1725 0e66 92E0      		ldi r25,lo8(2)
 1726 0e68 E89E      		mul r14,r24
 1727 0e6a F001      		movw r30,r0
 1728 0e6c E99E      		mul r14,r25
 1729 0e6e F00D      		add r31,r0
 1730 0e70 F89E      		mul r15,r24
 1731 0e72 F00D      		add r31,r0
 1732 0e74 1124      		clr r1
 1733 0e76 E050      		subi r30,lo8(-(pool+518))
 1734 0e78 F040      		sbci r31,hi8(-(pool+518))
 1735 0e7a 1082      		st Z,__zero_reg__
 1736 0e7c 6091 0000 		lds r22,s.29
 1737 0e80 7091 0000 		lds r23,s.29+1
 1738 0e84 8091 0000 		lds r24,s.29+2
 1739 0e88 9091 0000 		lds r25,s.29+3
 1740 0e8c 00C0      		rjmp .L80
 1742               	.global	__muldi3
 1743               		.section	.text.startup,"ax",@progbits
 1744               	.global	main
 1746               	main:
 1747 0000 CDB7      		in r28,__SP_L__
 1748 0002 DEB7      		in r29,__SP_H__
 1749 0004 E097      		sbiw r28,48
 1750 0006 0FB6      		in __tmp_reg__,__SREG__
 1751 0008 F894      		cli
 1752 000a DEBF      		out __SP_H__,r29
 1753 000c 0FBE      		out __SREG__,__tmp_reg__
 1754 000e CDBF      		out __SP_L__,r28
 1755               	/* prologue: function */
 1756               	/* frame size = 48 */
 1757               	/* stack size = 48 */
 1758               	.L__stack_usage = 48
 1759 0010 0E94 0000 		call UART_init
 1760 0014 80E0      		ldi r24,lo8(__c.53)
 1761 0016 90E0      		ldi r25,hi8(__c.53)
 1762 0018 0E94 0000 		call UART_puts_p
 1763 001c 80E0      		ldi r24,0
 1764 001e 91E1      		ldi r25,lo8(17)
 1765 0020 0E94 0000 		call SPI_init
 1766 0024 0E94 0000 		call SD_init
 1767 0028 8115      		cp r24, __zero_reg__
 1768 002a 01F0      		breq .L108
 1769 002c 80E0      		ldi r24,lo8(__c.52)
 1770 002e 90E0      		ldi r25,hi8(__c.52)
 1771 0030 0E94 0000 		call UART_puts_p
 1772               	.L109:
 1773 0034 00C0      		rjmp .L109
 1774               	.L108:
 1775 0036 80E0      		ldi r24,lo8(__c.51)
 1776 0038 90E0      		ldi r25,hi8(__c.51)
 1777 003a 0E94 0000 		call UART_puts_p
 1778 003e 61E0      		ldi r22,lo8(1)
 1779 0040 70E0      		ldi r23,0
 1780 0042 80EC      		ldi r24,lo8(-64)
 1781 0044 90E0      		ldi r25,0
 1782 0046 0E94 0000 		call calloc
 1783 004a FC01      		movw r30,r24
 1784 004c 9093 0000 		sts core+1,r25
 1785 0050 8093 0000 		sts core,r24
 1786 0054 DC01      		movw r26,r24
 1787 0056 A058      		subi r26,-128
 1788 0058 BF4F      		sbci r27,-1
 1789 005a 40E0      		ldi r20,0
 1790 005c 50E0      		ldi r21,0
 1791 005e 60E0      		ldi r22,0
 1792 0060 70E8      		ldi r23,lo8(-128)
 1793 0062 4D93      		st X+,r20
 1794 0064 5D93      		st X+,r21
 1795 0066 6D93      		st X+,r22
 1796 0068 7C93      		st X,r23
 1797 006a 1397      		sbiw r26,3
 1798 006c 80E4      		ldi r24,lo8(64)
 1799 006e 99EF      		ldi r25,lo8(-7)
 1800 0070 AFEF      		ldi r26,lo8(-1)
 1801 0072 B0E8      		ldi r27,lo8(-128)
 1802 0074 84A7      		std Z+44,r24
 1803 0076 95A7      		std Z+45,r25
 1804 0078 A6A7      		std Z+46,r26
 1805 007a B7A7      		std Z+47,r27
 1806 007c E454      		subi r30,68
 1807 007e FF4F      		sbci r31,-1
 1808 0080 83E0      		ldi r24,lo8(3)
 1809 0082 90E0      		ldi r25,0
 1810 0084 A0E0      		ldi r26,0
 1811 0086 B0E0      		ldi r27,0
 1812 0088 8083      		st Z,r24
 1813 008a 9183      		std Z+1,r25
 1814 008c A283      		std Z+2,r26
 1815 008e B383      		std Z+3,r27
 1816 0090 2FEF      		ldi r18,lo8(-1)
 1817 0092 3FEF      		ldi r19,lo8(-1)
 1818 0094 40E0      		ldi r20,0
 1819 0096 50E0      		ldi r21,0
 1820 0098 BA01      		movw r22,r20
 1821 009a 80E0      		ldi r24,0
 1822 009c 0E94 0000 		call init_cache
 1823 00a0 20E0      		ldi r18,0
 1824 00a2 30E0      		ldi r19,0
 1825 00a4 48E9      		ldi r20,lo8(-104)
 1826 00a6 59E1      		ldi r21,lo8(25)
 1827 00a8 60E0      		ldi r22,0
 1828 00aa 70E0      		ldi r23,0
 1829 00ac 81E0      		ldi r24,lo8(1)
 1830 00ae 0E94 0000 		call init_cache
 1831 00b2 20E0      		ldi r18,0
 1832 00b4 30E0      		ldi r19,0
 1833 00b6 43EC      		ldi r20,lo8(-61)
 1834 00b8 5BE0      		ldi r21,lo8(11)
 1835 00ba 60E0      		ldi r22,0
 1836 00bc 70E0      		ldi r23,0
 1837 00be 82E0      		ldi r24,lo8(2)
 1838 00c0 0E94 0000 		call init_cache
 1839 00c4 88EC      		ldi r24,lo8(-56)
 1840 00c6 8093 0000 		sts pool+173,r24
 1841 00ca 299A      		sbi 0x5,1
 1842 00cc 8091 8100 		lds r24,129
 1843 00d0 8A60      		ori r24,lo8(10)
 1844 00d2 8093 8100 		sts 129,r24
 1845 00d6 87E0      		ldi r24,lo8(7)
 1846 00d8 8093 8900 		sts 137,r24
 1847 00dc 80ED      		ldi r24,lo8(-48)
 1848 00de 8093 8800 		sts 136,r24
 1849 00e2 8091 6F00 		lds r24,111
 1850 00e6 8260      		ori r24,lo8(2)
 1851 00e8 8093 6F00 		sts 111,r24
 1852               	/* #APP */
 1853               	 ;  257 "main.c" 1
 1854 00ec 7894      		sei
 1855               	 ;  0 "" 2
 1856               	/* #NOAPP */
 1857 00ee 80E0      		ldi r24,lo8(__c.50)
 1858 00f0 90E0      		ldi r25,hi8(__c.50)
 1859 00f2 0E94 0000 		call UART_puts_p
 1860 00f6 6DB7      		in r22,__SP_L__
 1861 00f8 7EB7      		in r23,__SP_L__+1
 1862 00fa 8091 0000 		lds r24,__brkval
 1863 00fe 9091 0000 		lds r25,__brkval+1
 1864 0102 0097      		sbiw r24,0
 1865 0104 01F4      		brne .+4
 1866 0106 0C94 0000 		jmp .L527
 1867               	.L111:
 1868 010a 681B      		sub r22,r24
 1869 010c 790B      		sbc r23,r25
 1870 010e 072E      		mov __tmp_reg__,r23
 1871 0110 000C      		lsl r0
 1872 0112 880B      		sbc r24,r24
 1873 0114 990B      		sbc r25,r25
 1874 0116 0E94 0000 		call UART_putdec32
 1875 011a 80E0      		ldi r24,lo8(__c.49)
 1876 011c 90E0      		ldi r25,hi8(__c.49)
 1877 011e 0E94 0000 		call UART_puts_p
 1878 0122 B7E0      		ldi r27,lo8(7)
 1879 0124 2B2E      		mov r2,r27
 1880 0126 B2E0      		ldi r27,lo8(2)
 1881 0128 3B2E      		mov r3,r27
 1882               	.L286:
 1883 012a 199B      		sbis 0x3,1
 1884 012c 00C0      		rjmp .L528
 1885               	.L113:
 1886 012e 8090 0000 		lds r8,core
 1887 0132 9090 0000 		lds r9,core+1
 1888 0136 9A8A      		std Y+18,r9
 1889 0138 898A      		std Y+17,r8
 1890 013a 9090 0000 		lds r9,lastTime
 1891 013e 9D82      		std Y+5,r9
 1892 0140 A090 0000 		lds r10,lastTime+1
 1893 0144 AE82      		std Y+6,r10
 1894 0146 B090 0000 		lds r11,lastTime+2
 1895 014a BF82      		std Y+7,r11
 1896 014c E090 0000 		lds r14,lastTime+3
 1897 0150 E886      		std Y+8,r14
 1898 0152 F090 0000 		lds r15,lastTime+4
 1899 0156 F986      		std Y+9,r15
 1900 0158 0091 0000 		lds r16,lastTime+5
 1901 015c 0A87      		std Y+10,r16
 1902 015e 1091 0000 		lds r17,lastTime+6
 1903 0162 1B87      		std Y+11,r17
 1904 0164 2091 0000 		lds r18,lastTime+7
 1905 0168 2C87      		std Y+12,r18
 1906 016a 4989      		ldd r20,Y+17
 1907 016c 5A89      		ldd r21,Y+18
 1908 016e 4857      		subi r20,120
 1909 0170 5F4F      		sbci r21,-1
 1910 0172 5C8B      		std Y+20,r21
 1911 0174 4B8B      		std Y+19,r20
 1912 0176 DA01      		movw r26,r20
 1913 0178 2C91      		ld r18,X
 1914 017a 1196      		adiw r26,1
 1915 017c 3C91      		ld r19,X
 1916 017e 1197      		sbiw r26,1
 1917 0180 1296      		adiw r26,2
 1918 0182 4C91      		ld r20,X
 1919 0184 1297      		sbiw r26,2
 1920 0186 1396      		adiw r26,3
 1921 0188 5C91      		ld r21,X
 1922 018a 1397      		sbiw r26,3
 1923 018c 1496      		adiw r26,4
 1924 018e 6C91      		ld r22,X
 1925 0190 1497      		sbiw r26,4
 1926 0192 1596      		adiw r26,5
 1927 0194 7C91      		ld r23,X
 1928 0196 1597      		sbiw r26,5
 1929 0198 1696      		adiw r26,6
 1930 019a 8C91      		ld r24,X
 1931 019c 1697      		sbiw r26,6
 1932 019e 1796      		adiw r26,7
 1933 01a0 9C91      		ld r25,X
 1934 01a2 01E0      		ldi r16,lo8(1)
 1935 01a4 0E94 0000 		call __lshrdi3
 1936 01a8 4901      		movw r8,r18
 1937 01aa 5A01      		movw r10,r20
 1938 01ac 2401      		movw r4,r8
 1939 01ae 3501      		movw r6,r10
 1940 01b0 0D81      		ldd r16,Y+5
 1941 01b2 1E81      		ldd r17,Y+6
 1942 01b4 2F81      		ldd r18,Y+7
 1943 01b6 3885      		ldd r19,Y+8
 1944 01b8 401A      		sub r4,r16
 1945 01ba 510A      		sbc r5,r17
 1946 01bc 620A      		sbc r6,r18
 1947 01be 730A      		sbc r7,r19
 1948 01c0 5301      		movw r10,r6
 1949 01c2 4201      		movw r8,r4
 1950 01c4 9201      		movw r18,r4
 1951 01c6 A501      		movw r20,r10
 1952 01c8 60E0      		ldi r22,0
 1953 01ca 70E0      		ldi r23,0
 1954 01cc 80E0      		ldi r24,0
 1955 01ce 90E0      		ldi r25,0
 1956 01d0 AD80      		ldd r10,Y+5
 1957 01d2 BE80      		ldd r11,Y+6
 1958 01d4 CF80      		ldd r12,Y+7
 1959 01d6 D884      		ldd r13,Y+8
 1960 01d8 E984      		ldd r14,Y+9
 1961 01da FA84      		ldd r15,Y+10
 1962 01dc 0B85      		ldd r16,Y+11
 1963 01de 1C85      		ldd r17,Y+12
 1964 01e0 0E94 0000 		call __adddi3
 1965 01e4 2093 0000 		sts lastTime,r18
 1966 01e8 3093 0000 		sts lastTime+1,r19
 1967 01ec 4093 0000 		sts lastTime+2,r20
 1968 01f0 5093 0000 		sts lastTime+3,r21
 1969 01f4 6093 0000 		sts lastTime+4,r22
 1970 01f8 7093 0000 		sts lastTime+5,r23
 1971 01fc 8093 0000 		sts lastTime+6,r24
 1972 0200 9093 0000 		sts lastTime+7,r25
 1973 0204 2989      		ldd r18,Y+17
 1974 0206 3A89      		ldd r19,Y+18
 1975 0208 2057      		subi r18,112
 1976 020a 3F4F      		sbci r19,-1
 1977 020c 3EA3      		std Y+38,r19
 1978 020e 2DA3      		std Y+37,r18
 1979 0210 D901      		movw r26,r18
 1980 0212 4D91      		ld r20,X+
 1981 0214 5D91      		ld r21,X+
 1982 0216 6D91      		ld r22,X+
 1983 0218 7C91      		ld r23,X
 1984 021a 440E      		add r4,r20
 1985 021c 551E      		adc r5,r21
 1986 021e 661E      		adc r6,r22
 1987 0220 771E      		adc r7,r23
 1988 0222 E989      		ldd r30,Y+17
 1989 0224 FA89      		ldd r31,Y+18
 1990 0226 EC56      		subi r30,108
 1991 0228 FF4F      		sbci r31,-1
 1992 022a F8A7      		std Y+40,r31
 1993 022c EFA3      		std Y+39,r30
 1994 022e 8081      		ld r24,Z
 1995 0230 9181      		ldd r25,Z+1
 1996 0232 A281      		ldd r26,Z+2
 1997 0234 B381      		ldd r27,Z+3
 1998 0236 4416      		cp r4,r20
 1999 0238 5506      		cpc r5,r21
 2000 023a 6606      		cpc r6,r22
 2001 023c 7706      		cpc r7,r23
 2002 023e 00F4      		brsh .L117
 2003 0240 0196      		adiw r24,1
 2004 0242 A11D      		adc r26,__zero_reg__
 2005 0244 B11D      		adc r27,__zero_reg__
 2006 0246 8083      		st Z,r24
 2007 0248 9183      		std Z+1,r25
 2008 024a A283      		std Z+2,r26
 2009 024c B383      		std Z+3,r27
 2010               	.L117:
 2011 024e EDA1      		ldd r30,Y+37
 2012 0250 FEA1      		ldd r31,Y+38
 2013 0252 4082      		st Z,r4
 2014 0254 5182      		std Z+1,r5
 2015 0256 6282      		std Z+2,r6
 2016 0258 7382      		std Z+3,r7
 2017 025a 0989      		ldd r16,Y+17
 2018 025c 1A89      		ldd r17,Y+18
 2019 025e 0456      		subi r16,100
 2020 0260 1F4F      		sbci r17,-1
 2021 0262 1AA7      		std Y+42,r17
 2022 0264 09A7      		std Y+41,r16
 2023 0266 F801      		movw r30,r16
 2024 0268 4081      		ld r20,Z
 2025 026a 5181      		ldd r21,Z+1
 2026 026c 6281      		ldd r22,Z+2
 2027 026e 7381      		ldd r23,Z+3
 2028 0270 4817      		cp r20,r24
 2029 0272 5907      		cpc r21,r25
 2030 0274 6A07      		cpc r22,r26
 2031 0276 7B07      		cpc r23,r27
 2032 0278 00F4      		brsh .+2
 2033 027a 00C0      		rjmp .L118
 2034 027c 4817      		cp r20,r24
 2035 027e 5907      		cpc r21,r25
 2036 0280 6A07      		cpc r22,r26
 2037 0282 7B07      		cpc r23,r27
 2038 0284 01F4      		brne .+2
 2039 0286 00C0      		rjmp .L529
 2040               	.L119:
 2041 0288 E989      		ldd r30,Y+17
 2042 028a FA89      		ldd r31,Y+18
 2043 028c E455      		subi r30,84
 2044 028e FF4F      		sbci r31,-1
 2045 0290 FCA3      		std Y+36,r31
 2046 0292 EBA3      		std Y+35,r30
 2047 0294 8081      		ld r24,Z
 2048 0296 9181      		ldd r25,Z+1
 2049 0298 A281      		ldd r26,Z+2
 2050 029a B381      		ldd r27,Z+3
 2051 029c 8F77      		andi r24,127
 2052 029e 8083      		st Z,r24
 2053 02a0 9183      		std Z+1,r25
 2054 02a2 A283      		std Z+2,r26
 2055 02a4 B383      		std Z+3,r27
 2056 02a6 0989      		ldd r16,Y+17
 2057 02a8 1A89      		ldd r17,Y+18
 2058 02aa 0454      		subi r16,68
 2059 02ac 1F4F      		sbci r17,-1
 2060 02ae 1AA3      		std Y+34,r17
 2061 02b0 09A3      		std Y+33,r16
 2062 02b2 D801      		movw r26,r16
 2063 02b4 8C91      		ld r24,X
 2064 02b6 82FD      		sbrc r24,2
 2065 02b8 00C0      		rjmp .+4
 2066 02ba 0C94 0000 		jmp .L530
 2067               	.L123:
 2068 02be EFE9      		ldi r30,lo8(3999)
 2069 02c0 FFE0      		ldi r31,hi8(3999)
 2070 02c2 3197      	1:	sbiw r30,1
 2071 02c4 01F4      		brne 1b
 2072 02c6 00C0      		rjmp .
 2073 02c8 0000      		nop
 2074 02ca AB89      		ldd r26,Y+19
 2075 02cc BC89      		ldd r27,Y+20
 2076 02ce 2C91      		ld r18,X
 2077 02d0 1196      		adiw r26,1
 2078 02d2 3C91      		ld r19,X
 2079 02d4 1197      		sbiw r26,1
 2080 02d6 1296      		adiw r26,2
 2081 02d8 4C91      		ld r20,X
 2082 02da 1297      		sbiw r26,2
 2083 02dc 1396      		adiw r26,3
 2084 02de 5C91      		ld r21,X
 2085 02e0 1397      		sbiw r26,3
 2086 02e2 1496      		adiw r26,4
 2087 02e4 6C91      		ld r22,X
 2088 02e6 1497      		sbiw r26,4
 2089 02e8 1596      		adiw r26,5
 2090 02ea 7C91      		ld r23,X
 2091 02ec 1597      		sbiw r26,5
 2092 02ee 1696      		adiw r26,6
 2093 02f0 8C91      		ld r24,X
 2094 02f2 1697      		sbiw r26,6
 2095 02f4 1796      		adiw r26,7
 2096 02f6 9C91      		ld r25,X
 2097 02f8 1797      		sbiw r26,7
 2098 02fa 3C5F      		subi r19,-4
 2099 02fc 4F4F      		sbci r20,-1
 2100 02fe 5F4F      		sbci r21,-1
 2101 0300 6F4F      		sbci r22,-1
 2102 0302 7F4F      		sbci r23,-1
 2103 0304 8F4F      		sbci r24,-1
 2104 0306 9F4F      		sbci r25,-1
 2105 0308 2C93      		st X,r18
 2106 030a 1196      		adiw r26,1
 2107 030c 3C93      		st X,r19
 2108 030e 1197      		sbiw r26,1
 2109 0310 1296      		adiw r26,2
 2110 0312 4C93      		st X,r20
 2111 0314 1297      		sbiw r26,2
 2112 0316 1396      		adiw r26,3
 2113 0318 5C93      		st X,r21
 2114 031a 1397      		sbiw r26,3
 2115 031c 1496      		adiw r26,4
 2116 031e 6C93      		st X,r22
 2117 0320 1497      		sbiw r26,4
 2118 0322 1596      		adiw r26,5
 2119 0324 7C93      		st X,r23
 2120 0326 1597      		sbiw r26,5
 2121 0328 1696      		adiw r26,6
 2122 032a 8C93      		st X,r24
 2123 032c 1697      		sbiw r26,6
 2124 032e 1796      		adiw r26,7
 2125 0330 9C93      		st X,r25
 2126 0332 00C0      		rjmp .L286
 2127               	.L529:
 2128 0334 E989      		ldd r30,Y+17
 2129 0336 FA89      		ldd r31,Y+18
 2130 0338 E856      		subi r30,104
 2131 033a FF4F      		sbci r31,-1
 2132 033c 8081      		ld r24,Z
 2133 033e 9181      		ldd r25,Z+1
 2134 0340 A281      		ldd r26,Z+2
 2135 0342 B381      		ldd r27,Z+3
 2136 0344 8415      		cp r24,r4
 2137 0346 9505      		cpc r25,r5
 2138 0348 A605      		cpc r26,r6
 2139 034a B705      		cpc r27,r7
 2140 034c 00F0      		brlo .+2
 2141 034e 00C0      		rjmp .L119
 2142               	.L118:
 2143 0350 452B      		or r20,r21
 2144 0352 462B      		or r20,r22
 2145 0354 472B      		or r20,r23
 2146 0356 01F4      		brne .L120
 2147 0358 E989      		ldd r30,Y+17
 2148 035a FA89      		ldd r31,Y+18
 2149 035c E856      		subi r30,104
 2150 035e FF4F      		sbci r31,-1
 2151 0360 8081      		ld r24,Z
 2152 0362 9181      		ldd r25,Z+1
 2153 0364 A281      		ldd r26,Z+2
 2154 0366 B381      		ldd r27,Z+3
 2155 0368 892B      		or r24,r25
 2156 036a 8A2B      		or r24,r26
 2157 036c 8B2B      		or r24,r27
 2158 036e 01F4      		brne .+2
 2159 0370 00C0      		rjmp .L119
 2160               	.L120:
 2161 0372 0989      		ldd r16,Y+17
 2162 0374 1A89      		ldd r17,Y+18
 2163 0376 0454      		subi r16,68
 2164 0378 1F4F      		sbci r17,-1
 2165 037a 1AA3      		std Y+34,r17
 2166 037c 09A3      		std Y+33,r16
 2167 037e F801      		movw r30,r16
 2168 0380 8081      		ld r24,Z
 2169 0382 9181      		ldd r25,Z+1
 2170 0384 A281      		ldd r26,Z+2
 2171 0386 B381      		ldd r27,Z+3
 2172 0388 8B7F      		andi r24,251
 2173 038a 8083      		st Z,r24
 2174 038c 9183      		std Z+1,r25
 2175 038e A283      		std Z+2,r26
 2176 0390 B383      		std Z+3,r27
 2177 0392 0989      		ldd r16,Y+17
 2178 0394 1A89      		ldd r17,Y+18
 2179 0396 0455      		subi r16,84
 2180 0398 1F4F      		sbci r17,-1
 2181 039a 1CA3      		std Y+36,r17
 2182 039c 0BA3      		std Y+35,r16
 2183 039e F801      		movw r30,r16
 2184 03a0 8081      		ld r24,Z
 2185 03a2 9181      		ldd r25,Z+1
 2186 03a4 A281      		ldd r26,Z+2
 2187 03a6 B381      		ldd r27,Z+3
 2188 03a8 8068      		ori r24,128
 2189 03aa 8083      		st Z,r24
 2190 03ac 9183      		std Z+1,r25
 2191 03ae A283      		std Z+2,r26
 2192 03b0 B383      		std Z+3,r27
 2193 03b2 0989      		ldd r16,Y+17
 2194 03b4 1A89      		ldd r17,Y+18
 2195 03b6 0058      		subi r16,-128
 2196 03b8 1F4F      		sbci r17,-1
 2197 03ba 1CA7      		std Y+44,r17
 2198 03bc 0BA7      		std Y+43,r16
 2199 03be D801      		movw r26,r16
 2200 03c0 8D90      		ld r8,X+
 2201 03c2 9D90      		ld r9,X+
 2202 03c4 AD90      		ld r10,X+
 2203 03c6 BC90      		ld r11,X
 2204 03c8 8D82      		std Y+5,r8
 2205 03ca 9E82      		std Y+6,r9
 2206 03cc AF82      		std Y+7,r10
 2207 03ce B886      		std Y+8,r11
 2208 03d0 AB89      		ldd r26,Y+19
 2209 03d2 BC89      		ldd r27,Y+20
 2210 03d4 8D90      		ld r8,X+
 2211 03d6 9D90      		ld r9,X+
 2212 03d8 AD90      		ld r10,X+
 2213 03da BC90      		ld r11,X
 2214 03dc 898E      		std Y+25,r8
 2215 03de 9A8E      		std Y+26,r9
 2216 03e0 AB8E      		std Y+27,r10
 2217 03e2 BC8E      		std Y+28,r11
 2218 03e4 E989      		ldd r30,Y+17
 2219 03e6 FA89      		ldd r31,Y+18
 2220 03e8 E855      		subi r30,88
 2221 03ea FF4F      		sbci r31,-1
 2222 03ec 8081      		ld r24,Z
 2223 03ee 87FD      		sbrc r24,7
 2224 03f0 00C0      		rjmp .L121
 2225               	.L510:
 2226 03f2 9501      		movw r18,r10
 2227 03f4 8401      		movw r16,r8
 2228 03f6 0F5F      		subi r16,-1
 2229 03f8 1F4F      		sbci r17,-1
 2230 03fa 2F4F      		sbci r18,-1
 2231 03fc 3F4F      		sbci r19,-1
 2232 03fe 0D87      		std Y+13,r16
 2233 0400 1E87      		std Y+14,r17
 2234 0402 2F87      		std Y+15,r18
 2235 0404 388B      		std Y+16,r19
 2236 0406 8D80      		ldd r8,Y+5
 2237 0408 9E80      		ldd r9,Y+6
 2238 040a AF80      		ldd r10,Y+7
 2239 040c B884      		ldd r11,Y+8
 2240 040e 10E8      		ldi r17,-128
 2241 0410 B11A      		sub r11,r17
 2242 0412 8114      		cp r8,__zero_reg__
 2243 0414 9104      		cpc r9,__zero_reg__
 2244 0416 A104      		cpc r10,__zero_reg__
 2245 0418 21E0      		ldi r18,1
 2246 041a B206      		cpc r11,r18
 2247 041c 00F0      		brlo .+2
 2248 041e 00C0      		rjmp .L305
 2249 0420 D501      		movw r26,r10
 2250 0422 C401      		movw r24,r8
 2251 0424 8370      		andi r24,3
 2252 0426 9927      		clr r25
 2253 0428 AA27      		clr r26
 2254 042a BB27      		clr r27
 2255 042c 892B      		or r24,r25
 2256 042e 8A2B      		or r24,r26
 2257 0430 8B2B      		or r24,r27
 2258 0432 01F0      		breq .+2
 2259 0434 00C0      		rjmp .L306
 2260 0436 498D      		ldd r20,Y+25
 2261 0438 5A8D      		ldd r21,Y+26
 2262 043a 6B8D      		ldd r22,Y+27
 2263 043c 7C8D      		ldd r23,Y+28
 2264 043e 5C5F      		subi r21,-4
 2265 0440 6F4F      		sbci r22,-1
 2266 0442 7F4F      		sbci r23,-1
 2267 0444 498F      		std Y+25,r20
 2268 0446 5A8F      		std Y+26,r21
 2269 0448 6B8F      		std Y+27,r22
 2270 044a 7C8F      		std Y+28,r23
 2271               	.L125:
 2272 044c 8401      		movw r16,r8
 2273 044e 1170      		andi r17,1
 2274 0450 42E0      		ldi r20,lo8(2)
 2275 0452 C501      		movw r24,r10
 2276 0454 B401      		movw r22,r8
 2277 0456 0E94 0000 		call read_buf
 2278 045a 0D3F      		cpi r16,-3
 2279 045c 91E0      		ldi r25,1
 2280 045e 1907      		cpc r17,r25
 2281 0460 00F0      		brlo .+2
 2282 0462 00C0      		rjmp .L531
 2283 0464 829D      		mul r24,r2
 2284 0466 F001      		movw r30,r0
 2285 0468 839D      		mul r24,r3
 2286 046a F00D      		add r31,r0
 2287 046c 1124      		clr __zero_reg__
 2288 046e E00F      		add r30,r16
 2289 0470 F11F      		adc r31,r17
 2290 0472 E050      		subi r30,lo8(-(pool))
 2291 0474 F040      		sbci r31,hi8(-(pool))
 2292 0476 3081      		ld r19,Z
 2293 0478 2181      		ldd r18,Z+1
 2294 047a 9281      		ldd r25,Z+2
 2295 047c 8381      		ldd r24,Z+3
 2296 047e 3983      		std Y+1,r19
 2297 0480 2A83      		std Y+2,r18
 2298 0482 9B83      		std Y+3,r25
 2299 0484 8C83      		std Y+4,r24
 2300 0486 C980      		ldd r12,Y+1
 2301 0488 DA80      		ldd r13,Y+2
 2302 048a EB80      		ldd r14,Y+3
 2303 048c FC80      		ldd r15,Y+4
 2304               	.L129:
 2305 048e B701      		movw r22,r14
 2306 0490 A601      		movw r20,r12
 2307 0492 87E0      		ldi r24,7
 2308               		1:
 2309 0494 7695      		lsr r23
 2310 0496 6795      		ror r22
 2311 0498 5795      		ror r21
 2312 049a 4795      		ror r20
 2313 049c 8A95      		dec r24
 2314 049e 01F4      		brne 1b
 2315 04a0 2A01      		movw r4,r20
 2316 04a2 3B01      		movw r6,r22
 2317 04a4 8FE1      		ldi r24,31
 2318 04a6 4822      		and r4,r24
 2319 04a8 5524      		clr r5
 2320 04aa 6624      		clr r6
 2321 04ac 7724      		clr r7
 2322 04ae D701      		movw r26,r14
 2323 04b0 C601      		movw r24,r12
 2324 04b2 8F77      		andi r24,127
 2325 04b4 9927      		clr r25
 2326 04b6 AA27      		clr r26
 2327 04b8 BB27      		clr r27
 2328 04ba 8833      		cpi r24,56
 2329 04bc 9105      		cpc r25,__zero_reg__
 2330 04be A105      		cpc r26,__zero_reg__
 2331 04c0 B105      		cpc r27,__zero_reg__
 2332 04c2 00F0      		brlo .+2
 2333 04c4 00C0      		rjmp .L294
 2334 04c6 8330      		cpi r24,3
 2335 04c8 9105      		cpc r25,__zero_reg__
 2336 04ca A105      		cpc r26,__zero_reg__
 2337 04cc B105      		cpc r27,__zero_reg__
 2338 04ce 00F4      		brsh .+2
 2339 04d0 00C0      		rjmp .L142
 2340 04d2 0397      		sbiw r24,3
 2341 04d4 A109      		sbc r26,__zero_reg__
 2342 04d6 B109      		sbc r27,__zero_reg__
 2343 04d8 8433      		cpi r24,52
 2344 04da 9105      		cpc r25,__zero_reg__
 2345 04dc A105      		cpc r26,__zero_reg__
 2346 04de B105      		cpc r27,__zero_reg__
 2347 04e0 01F0      		breq .+2
 2348 04e2 00F4      		brsh .L327
 2349 04e4 FC01      		movw r30,r24
 2350 04e6 8827      		clr r24
 2351 04e8 E050      		subi r30,pm_lo8(-(.L296))
 2352 04ea F040      		sbci r31,pm_hi8(-(.L296))
 2353 04ec 8040      		sbci r24,pm_hh8(-(.L296))
 2354 04ee 0C94 0000 		jmp __tablejump2__
 2355               		.section	.jumptables.gcc.main,"a",@progbits
 2356               		.p2align	1
 2357               	.L296:
 2358 0000 0000      		.word gs(.L145)
 2359 0002 0000      		.word gs(.L327)
 2360 0004 0000      		.word gs(.L327)
 2361 0006 0000      		.word gs(.L327)
 2362 0008 0000      		.word gs(.L327)
 2363 000a 0000      		.word gs(.L327)
 2364 000c 0000      		.word gs(.L327)
 2365 000e 0000      		.word gs(.L327)
 2366 0010 0000      		.word gs(.L327)
 2367 0012 0000      		.word gs(.L327)
 2368 0014 0000      		.word gs(.L327)
 2369 0016 0000      		.word gs(.L327)
 2370 0018 0000      		.word gs(.L144)
 2371 001a 0000      		.word gs(.L327)
 2372 001c 0000      		.word gs(.L327)
 2373 001e 0000      		.word gs(.L327)
 2374 0020 0000      		.word gs(.L170)
 2375 0022 0000      		.word gs(.L327)
 2376 0024 0000      		.word gs(.L327)
 2377 0026 0000      		.word gs(.L327)
 2378 0028 0000      		.word gs(.L132)
 2379 002a 0000      		.word gs(.L327)
 2380 002c 0000      		.word gs(.L327)
 2381 002e 0000      		.word gs(.L327)
 2382 0030 0000      		.word gs(.L327)
 2383 0032 0000      		.word gs(.L327)
 2384 0034 0000      		.word gs(.L327)
 2385 0036 0000      		.word gs(.L327)
 2386 0038 0000      		.word gs(.L327)
 2387 003a 0000      		.word gs(.L327)
 2388 003c 0000      		.word gs(.L327)
 2389 003e 0000      		.word gs(.L327)
 2390 0040 0000      		.word gs(.L160)
 2391 0042 0000      		.word gs(.L327)
 2392 0044 0000      		.word gs(.L327)
 2393 0046 0000      		.word gs(.L327)
 2394 0048 0000      		.word gs(.L327)
 2395 004a 0000      		.word gs(.L327)
 2396 004c 0000      		.word gs(.L327)
 2397 004e 0000      		.word gs(.L327)
 2398 0050 0000      		.word gs(.L327)
 2399 0052 0000      		.word gs(.L327)
 2400 0054 0000      		.word gs(.L327)
 2401 0056 0000      		.word gs(.L327)
 2402 0058 0000      		.word gs(.L258)
 2403 005a 0000      		.word gs(.L327)
 2404 005c 0000      		.word gs(.L327)
 2405 005e 0000      		.word gs(.L327)
 2406 0060 0000      		.word gs(.L170)
 2407 0062 0000      		.word gs(.L327)
 2408 0064 0000      		.word gs(.L327)
 2409 0066 0000      		.word gs(.L327)
 2410 0068 0000      		.word gs(.L130)
 2411               		.section	.text.startup
 2412               	.L327:
 2413 04f2 43E0      		ldi r20,lo8(3)
 2414 04f4 50E0      		ldi r21,0
 2415 04f6 60E0      		ldi r22,0
 2416 04f8 70E0      		ldi r23,0
 2417               	.L295:
 2418 04fa 4150      		subi r20,1
 2419 04fc 5109      		sbc r21,__zero_reg__
 2420 04fe 6109      		sbc r22,__zero_reg__
 2421 0500 7109      		sbc r23,__zero_reg__
 2422               	.L522:
 2423 0502 0D81      		ldd r16,Y+5
 2424 0504 1E81      		ldd r17,Y+6
 2425 0506 2F81      		ldd r18,Y+7
 2426 0508 3885      		ldd r19,Y+8
 2427               	.L289:
 2428 050a 8D84      		ldd r8,Y+13
 2429 050c 9E84      		ldd r9,Y+14
 2430 050e AF84      		ldd r10,Y+15
 2431 0510 B888      		ldd r11,Y+16
 2432 0512 898E      		std Y+25,r8
 2433 0514 9A8E      		std Y+26,r9
 2434 0516 AB8E      		std Y+27,r10
 2435 0518 BC8E      		std Y+28,r11
 2436 051a E989      		ldd r30,Y+17
 2437 051c FA89      		ldd r31,Y+18
 2438 051e EC57      		subi r30,124
 2439 0520 FF4F      		sbci r31,-1
 2440               	.L126:
 2441 0522 A989      		ldd r26,Y+17
 2442 0524 BA89      		ldd r27,Y+18
 2443 0526 A854      		subi r26,72
 2444 0528 BF4F      		sbci r27,-1
 2445 052a 4D93      		st X+,r20
 2446 052c 5D93      		st X+,r21
 2447 052e 6D93      		st X+,r22
 2448 0530 7C93      		st X,r23
 2449 0532 1397      		sbiw r26,3
 2450 0534 A989      		ldd r26,Y+17
 2451 0536 BA89      		ldd r27,Y+18
 2452 0538 AC54      		subi r26,76
 2453 053a BF4F      		sbci r27,-1
 2454 053c 0D93      		st X+,r16
 2455 053e 1D93      		st X+,r17
 2456 0540 2D93      		st X+,r18
 2457 0542 3C93      		st X,r19
 2458 0544 1397      		sbiw r26,3
 2459 0546 A989      		ldd r26,Y+17
 2460 0548 BA89      		ldd r27,Y+18
 2461 054a A055      		subi r26,80
 2462 054c BF4F      		sbci r27,-1
 2463 054e 8D80      		ldd r8,Y+5
 2464 0550 9E80      		ldd r9,Y+6
 2465 0552 AF80      		ldd r10,Y+7
 2466 0554 B884      		ldd r11,Y+8
 2467 0556 8D92      		st X+,r8
 2468 0558 9D92      		st X+,r9
 2469 055a AD92      		st X+,r10
 2470 055c BC92      		st X,r11
 2471 055e 1397      		sbiw r26,3
 2472 0560 A9A1      		ldd r26,Y+33
 2473 0562 BAA1      		ldd r27,Y+34
 2474 0564 4D91      		ld r20,X+
 2475 0566 5D91      		ld r21,X+
 2476 0568 6D91      		ld r22,X+
 2477 056a 7C91      		ld r23,X
 2478 056c 8081      		ld r24,Z
 2479 056e 9181      		ldd r25,Z+1
 2480 0570 A281      		ldd r26,Z+2
 2481 0572 B381      		ldd r27,Z+3
 2482 0574 24E0      		ldi r18,4
 2483               		1:
 2484 0576 880F      		lsl r24
 2485 0578 991F      		rol r25
 2486 057a AA1F      		rol r26
 2487 057c BB1F      		rol r27
 2488 057e 2A95      		dec r18
 2489 0580 01F4      		brne 1b
 2490 0582 8078      		andi r24,128
 2491 0584 9927      		clr r25
 2492 0586 AA27      		clr r26
 2493 0588 BB27      		clr r27
 2494 058a 8A01      		movw r16,r20
 2495 058c 9B01      		movw r18,r22
 2496 058e 0F2E      		mov r0,r31
 2497 0590 FBE0      		ldi r31,11
 2498               		1:
 2499 0592 000F      		lsl r16
 2500 0594 111F      		rol r17
 2501 0596 221F      		rol r18
 2502 0598 331F      		rol r19
 2503 059a FA95      		dec r31
 2504 059c 01F4      		brne 1b
 2505 059e F02D      		mov r31,r0
 2506 05a0 0027      		clr r16
 2507 05a2 1871      		andi r17,24
 2508 05a4 2227      		clr r18
 2509 05a6 3327      		clr r19
 2510 05a8 802B      		or r24,r16
 2511 05aa 912B      		or r25,r17
 2512 05ac A22B      		or r26,r18
 2513 05ae B32B      		or r27,r19
 2514 05b0 8083      		st Z,r24
 2515 05b2 9183      		std Z+1,r25
 2516 05b4 A283      		std Z+2,r26
 2517 05b6 B383      		std Z+3,r27
 2518 05b8 E989      		ldd r30,Y+17
 2519 05ba FA89      		ldd r31,Y+18
 2520 05bc EC55      		subi r30,92
 2521 05be FF4F      		sbci r31,-1
 2522 05c0 8080      		ld r8,Z
 2523 05c2 9180      		ldd r9,Z+1
 2524 05c4 A280      		ldd r10,Z+2
 2525 05c6 B380      		ldd r11,Z+3
 2526 05c8 8D82      		std Y+5,r8
 2527 05ca 9E82      		std Y+6,r9
 2528 05cc AF82      		std Y+7,r10
 2529 05ce B886      		std Y+8,r11
 2530 05d0 4360      		ori r20,3
 2531 05d2 A9A1      		ldd r26,Y+33
 2532 05d4 BAA1      		ldd r27,Y+34
 2533 05d6 4D93      		st X+,r20
 2534 05d8 5D93      		st X+,r21
 2535 05da 6D93      		st X+,r22
 2536 05dc 7C93      		st X,r23
 2537 05de 1397      		sbiw r26,3
 2538               	.L281:
 2539 05e0 EB89      		ldd r30,Y+19
 2540 05e2 FC89      		ldd r31,Y+20
 2541 05e4 8081      		ld r24,Z
 2542 05e6 9181      		ldd r25,Z+1
 2543 05e8 A281      		ldd r26,Z+2
 2544 05ea B381      		ldd r27,Z+3
 2545 05ec 898C      		ldd r8,Y+25
 2546 05ee 9A8C      		ldd r9,Y+26
 2547 05f0 AB8C      		ldd r10,Y+27
 2548 05f2 BC8C      		ldd r11,Y+28
 2549 05f4 8816      		cp r8,r24
 2550 05f6 9906      		cpc r9,r25
 2551 05f8 AA06      		cpc r10,r26
 2552 05fa BB06      		cpc r11,r27
 2553 05fc 00F4      		brsh .L282
 2554 05fe E989      		ldd r30,Y+17
 2555 0600 FA89      		ldd r31,Y+18
 2556 0602 E457      		subi r30,116
 2557 0604 FF4F      		sbci r31,-1
 2558 0606 8081      		ld r24,Z
 2559 0608 9181      		ldd r25,Z+1
 2560 060a A281      		ldd r26,Z+2
 2561 060c B381      		ldd r27,Z+3
 2562 060e 0196      		adiw r24,1
 2563 0610 A11D      		adc r26,__zero_reg__
 2564 0612 B11D      		adc r27,__zero_reg__
 2565 0614 8083      		st Z,r24
 2566 0616 9183      		std Z+1,r25
 2567 0618 A283      		std Z+2,r26
 2568 061a B383      		std Z+3,r27
 2569               	.L282:
 2570 061c 898C      		ldd r8,Y+25
 2571 061e 9A8C      		ldd r9,Y+26
 2572 0620 AB8C      		ldd r10,Y+27
 2573 0622 BC8C      		ldd r11,Y+28
 2574 0624 AB89      		ldd r26,Y+19
 2575 0626 BC89      		ldd r27,Y+20
 2576 0628 8D92      		st X+,r8
 2577 062a 9D92      		st X+,r9
 2578 062c AD92      		st X+,r10
 2579 062e BC92      		st X,r11
 2580 0630 1397      		sbiw r26,3
 2581 0632 8D80      		ldd r8,Y+5
 2582 0634 9E80      		ldd r9,Y+6
 2583 0636 AF80      		ldd r10,Y+7
 2584 0638 B884      		ldd r11,Y+8
 2585 063a ABA5      		ldd r26,Y+43
 2586 063c BCA5      		ldd r27,Y+44
 2587 063e 8D92      		st X+,r8
 2588 0640 9D92      		st X+,r9
 2589 0642 AD92      		st X+,r10
 2590 0644 BC92      		st X,r11
 2591 0646 1397      		sbiw r26,3
 2592 0648 1999      		sbic 0x3,1
 2593 064a 00C0      		rjmp .L113
 2594               	.L528:
 2595               	/* #APP */
 2596               	 ;  50 "/usr/avr/include/util/atomic.h" 1
 2597 064c F894      		cli
 2598               	 ;  0 "" 2
 2599               	/* #NOAPP */
 2600 064e C090 0000 		lds r12,timer1_millis
 2601 0652 D090 0000 		lds r13,timer1_millis+1
 2602 0656 E090 0000 		lds r14,timer1_millis+2
 2603 065a F090 0000 		lds r15,timer1_millis+3
 2604               	/* #APP */
 2605               	 ;  56 "/usr/avr/include/util/atomic.h" 1
 2606 065e 7894      		sei
 2607               	 ;  0 "" 2
 2608               	/* #NOAPP */
 2609 0660 80E0      		ldi r24,lo8(__c.48)
 2610 0662 90E0      		ldi r25,hi8(__c.48)
 2611 0664 0E94 0000 		call UART_puts_p
 2612 0668 E091 0000 		lds r30,core
 2613 066c F091 0000 		lds r31,core+1
 2614 0670 E857      		subi r30,120
 2615 0672 FF4F      		sbci r31,-1
 2616 0674 2081      		ld r18,Z
 2617 0676 3181      		ldd r19,Z+1
 2618 0678 4281      		ldd r20,Z+2
 2619 067a 5381      		ldd r21,Z+3
 2620 067c 8091 0000 		lds r24,last_cyclel
 2621 0680 9091 0000 		lds r25,last_cyclel+1
 2622 0684 A091 0000 		lds r26,last_cyclel+2
 2623 0688 B091 0000 		lds r27,last_cyclel+3
 2624 068c 281B      		sub r18,r24
 2625 068e 390B      		sbc r19,r25
 2626 0690 4A0B      		sbc r20,r26
 2627 0692 5B0B      		sbc r21,r27
 2628 0694 A8EE      		ldi r26,lo8(-24)
 2629 0696 B3E0      		ldi r27,lo8(3)
 2630 0698 0E94 0000 		call __muluhisi3
 2631 069c 0091 0000 		lds r16,last_ms
 2632 06a0 1091 0000 		lds r17,last_ms+1
 2633 06a4 2091 0000 		lds r18,last_ms+2
 2634 06a8 3091 0000 		lds r19,last_ms+3
 2635 06ac 4601      		movw r8,r12
 2636 06ae 5701      		movw r10,r14
 2637 06b0 801A      		sub r8,r16
 2638 06b2 910A      		sbc r9,r17
 2639 06b4 A20A      		sbc r10,r18
 2640 06b6 B30A      		sbc r11,r19
 2641 06b8 A501      		movw r20,r10
 2642 06ba 9401      		movw r18,r8
 2643 06bc 0E94 0000 		call __udivmodsi4
 2644 06c0 CA01      		movw r24,r20
 2645 06c2 B901      		movw r22,r18
 2646 06c4 0E94 0000 		call UART_putdec32
 2647 06c8 80E0      		ldi r24,lo8(__c.47)
 2648 06ca 90E0      		ldi r25,hi8(__c.47)
 2649 06cc 0E94 0000 		call UART_puts_p
 2650 06d0 8091 0000 		lds r24,last_ms
 2651 06d4 9091 0000 		lds r25,last_ms+1
 2652 06d8 A091 0000 		lds r26,last_ms+2
 2653 06dc B091 0000 		lds r27,last_ms+3
 2654 06e0 9701      		movw r18,r14
 2655 06e2 8601      		movw r16,r12
 2656 06e4 081B      		sub r16,r24
 2657 06e6 190B      		sbc r17,r25
 2658 06e8 2A0B      		sbc r18,r26
 2659 06ea 3B0B      		sbc r19,r27
 2660 06ec C901      		movw r24,r18
 2661 06ee B801      		movw r22,r16
 2662 06f0 0E94 0000 		call UART_putdec32
 2663 06f4 80E0      		ldi r24,lo8(__c.46)
 2664 06f6 90E0      		ldi r25,hi8(__c.46)
 2665 06f8 0E94 0000 		call UART_puts_p
 2666 06fc E091 0000 		lds r30,core
 2667 0700 F091 0000 		lds r31,core+1
 2668 0704 E857      		subi r30,120
 2669 0706 FF4F      		sbci r31,-1
 2670 0708 6081      		ld r22,Z
 2671 070a 7181      		ldd r23,Z+1
 2672 070c 8281      		ldd r24,Z+2
 2673 070e 9381      		ldd r25,Z+3
 2674 0710 0091 0000 		lds r16,last_cyclel
 2675 0714 1091 0000 		lds r17,last_cyclel+1
 2676 0718 2091 0000 		lds r18,last_cyclel+2
 2677 071c 3091 0000 		lds r19,last_cyclel+3
 2678 0720 601B      		sub r22,r16
 2679 0722 710B      		sbc r23,r17
 2680 0724 820B      		sbc r24,r18
 2681 0726 930B      		sbc r25,r19
 2682 0728 0E94 0000 		call UART_putdec32
 2683 072c 80E0      		ldi r24,lo8(__c.45)
 2684 072e 90E0      		ldi r25,hi8(__c.45)
 2685 0730 0E94 0000 		call UART_puts_p
 2686 0734 80E0      		ldi r24,lo8(__c.44)
 2687 0736 90E0      		ldi r25,hi8(__c.44)
 2688 0738 0E94 0000 		call UART_puts_p
 2689 073c 6DB7      		in r22,__SP_L__
 2690 073e 7EB7      		in r23,__SP_L__+1
 2691 0740 8091 0000 		lds r24,__brkval
 2692 0744 9091 0000 		lds r25,__brkval+1
 2693 0748 0097      		sbiw r24,0
 2694 074a 01F4      		brne .+4
 2695 074c 0C94 0000 		jmp .L532
 2696               	.L115:
 2697 0750 681B      		sub r22,r24
 2698 0752 790B      		sbc r23,r25
 2699 0754 072E      		mov __tmp_reg__,r23
 2700 0756 000C      		lsl r0
 2701 0758 880B      		sbc r24,r24
 2702 075a 990B      		sbc r25,r25
 2703 075c 0E94 0000 		call UART_putdec32
 2704 0760 80E0      		ldi r24,lo8(__c.43)
 2705 0762 90E0      		ldi r25,hi8(__c.43)
 2706 0764 0E94 0000 		call UART_puts_p
 2707 0768 80E0      		ldi r24,lo8(__c.42)
 2708 076a 90E0      		ldi r25,hi8(__c.42)
 2709 076c 0E94 0000 		call UART_puts_p
 2710 0770 6091 0000 		lds r22,icache_hit
 2711 0774 7091 0000 		lds r23,icache_hit+1
 2712 0778 8091 0000 		lds r24,icache_hit+2
 2713 077c 9091 0000 		lds r25,icache_hit+3
 2714 0780 0E94 0000 		call UART_putdec32
 2715 0784 80E0      		ldi r24,lo8(__c.41)
 2716 0786 90E0      		ldi r25,hi8(__c.41)
 2717 0788 0E94 0000 		call UART_puts_p
 2718 078c 6091 0000 		lds r22,icache_miss
 2719 0790 7091 0000 		lds r23,icache_miss+1
 2720 0794 8091 0000 		lds r24,icache_miss+2
 2721 0798 9091 0000 		lds r25,icache_miss+3
 2722 079c 0E94 0000 		call UART_putdec32
 2723 07a0 80E0      		ldi r24,lo8(__c.40)
 2724 07a2 90E0      		ldi r25,hi8(__c.40)
 2725 07a4 0E94 0000 		call UART_puts_p
 2726 07a8 6091 0000 		lds r22,dcache_hit
 2727 07ac 7091 0000 		lds r23,dcache_hit+1
 2728 07b0 8091 0000 		lds r24,dcache_hit+2
 2729 07b4 9091 0000 		lds r25,dcache_hit+3
 2730 07b8 0E94 0000 		call UART_putdec32
 2731 07bc 80E0      		ldi r24,lo8(__c.39)
 2732 07be 90E0      		ldi r25,hi8(__c.39)
 2733 07c0 0E94 0000 		call UART_puts_p
 2734 07c4 6091 0000 		lds r22,dcache_miss
 2735 07c8 7091 0000 		lds r23,dcache_miss+1
 2736 07cc 8091 0000 		lds r24,dcache_miss+2
 2737 07d0 9091 0000 		lds r25,dcache_miss+3
 2738 07d4 0E94 0000 		call UART_putdec32
 2739 07d8 80E0      		ldi r24,lo8(__c.38)
 2740 07da 90E0      		ldi r25,hi8(__c.38)
 2741 07dc 0E94 0000 		call UART_puts_p
 2742 07e0 0E94 0000 		call dump_state
 2743 07e4 80E0      		ldi r24,lo8(__c.37)
 2744 07e6 90E0      		ldi r25,hi8(__c.37)
 2745 07e8 0E94 0000 		call UART_puts_p
 2746               	.L116:
 2747 07ec 199B      		sbis 0x3,1
 2748 07ee 00C0      		rjmp .L116
 2749 07f0 80E0      		ldi r24,lo8(__c.36)
 2750 07f2 90E0      		ldi r25,hi8(__c.36)
 2751 07f4 0E94 0000 		call UART_puts_p
 2752 07f8 E091 0000 		lds r30,core
 2753 07fc F091 0000 		lds r31,core+1
 2754 0800 E857      		subi r30,120
 2755 0802 FF4F      		sbci r31,-1
 2756 0804 8081      		ld r24,Z
 2757 0806 9181      		ldd r25,Z+1
 2758 0808 A281      		ldd r26,Z+2
 2759 080a B381      		ldd r27,Z+3
 2760 080c 8093 0000 		sts last_cyclel,r24
 2761 0810 9093 0000 		sts last_cyclel+1,r25
 2762 0814 A093 0000 		sts last_cyclel+2,r26
 2763 0818 B093 0000 		sts last_cyclel+3,r27
 2764               	/* #APP */
 2765               	 ;  50 "/usr/avr/include/util/atomic.h" 1
 2766 081c F894      		cli
 2767               	 ;  0 "" 2
 2768               	/* #NOAPP */
 2769 081e 8091 0000 		lds r24,timer1_millis
 2770 0822 9091 0000 		lds r25,timer1_millis+1
 2771 0826 A091 0000 		lds r26,timer1_millis+2
 2772 082a B091 0000 		lds r27,timer1_millis+3
 2773               	/* #APP */
 2774               	 ;  56 "/usr/avr/include/util/atomic.h" 1
 2775 082e 7894      		sei
 2776               	 ;  0 "" 2
 2777               	/* #NOAPP */
 2778 0830 8093 0000 		sts last_ms,r24
 2779 0834 9093 0000 		sts last_ms+1,r25
 2780 0838 A093 0000 		sts last_ms+2,r26
 2781 083c B093 0000 		sts last_ms+3,r27
 2782 0840 00C0      		rjmp .L113
 2783               	.L170:
 2784 0842 4601      		movw r8,r12
 2785 0844 5701      		movw r10,r14
 2786 0846 A4E1      		ldi r26,20
 2787               		1:
 2788 0848 B694      		lsr r11
 2789 084a A794      		ror r10
 2790 084c 9794      		ror r9
 2791 084e 8794      		ror r8
 2792 0850 AA95      		dec r26
 2793 0852 01F4      		brne 1b
 2794 0854 D501      		movw r26,r10
 2795 0856 C401      		movw r24,r8
 2796 0858 8827      		clr r24
 2797 085a 9870      		andi r25,8
 2798 085c AA27      		clr r26
 2799 085e BB27      		clr r27
 2800 0860 0097      		sbiw r24,0
 2801 0862 A105      		cpc r26,__zero_reg__
 2802 0864 B105      		cpc r27,__zero_reg__
 2803 0866 01F0      		breq .L171
 2804 0868 80E0      		ldi r24,0
 2805 086a 90EF      		ldi r25,lo8(-16)
 2806 086c AFEF      		ldi r26,lo8(-1)
 2807 086e BFEF      		ldi r27,lo8(-1)
 2808               	.L171:
 2809 0870 882A      		or r8,r24
 2810 0872 992A      		or r9,r25
 2811 0874 AA2A      		or r10,r26
 2812 0876 BB2A      		or r11,r27
 2813 0878 D701      		movw r26,r14
 2814 087a C601      		movw r24,r12
 2815 087c 7FE0      		ldi r23,15
 2816               		1:
 2817 087e B695      		lsr r27
 2818 0880 A795      		ror r26
 2819 0882 9795      		ror r25
 2820 0884 8795      		ror r24
 2821 0886 7A95      		dec r23
 2822 0888 01F4      		brne 1b
 2823 088a 8F71      		andi r24,31
 2824 088c 9927      		clr r25
 2825 088e AA27      		clr r26
 2826 0890 BB27      		clr r27
 2827 0892 880F      		lsl r24
 2828 0894 991F      		rol r25
 2829 0896 880F      		lsl r24
 2830 0898 991F      		rol r25
 2831 089a E989      		ldd r30,Y+17
 2832 089c FA89      		ldd r31,Y+18
 2833 089e E80F      		add r30,r24
 2834 08a0 F91F      		adc r31,r25
 2835 08a2 2081      		ld r18,Z
 2836 08a4 3181      		ldd r19,Z+1
 2837 08a6 4281      		ldd r20,Z+2
 2838 08a8 5381      		ldd r21,Z+3
 2839 08aa 2D8B      		std Y+21,r18
 2840 08ac 3E8B      		std Y+22,r19
 2841 08ae 4F8B      		std Y+23,r20
 2842 08b0 588F      		std Y+24,r21
 2843 08b2 4D81      		ldd r20,Y+5
 2844 08b4 5E81      		ldd r21,Y+6
 2845 08b6 6F81      		ldd r22,Y+7
 2846 08b8 7885      		ldd r23,Y+8
 2847 08ba 4C5F      		subi r20,-4
 2848 08bc 5F4F      		sbci r21,-1
 2849 08be 6F4F      		sbci r22,-1
 2850 08c0 7F4F      		sbci r23,-1
 2851 08c2 4D8F      		std Y+29,r20
 2852 08c4 5E8F      		std Y+30,r21
 2853 08c6 6F8F      		std Y+31,r22
 2854 08c8 78A3      		std Y+32,r23
 2855 08ca D701      		movw r26,r14
 2856 08cc C601      		movw r24,r12
 2857 08ce FCE0      		ldi r31,12
 2858               		1:
 2859 08d0 B695      		lsr r27
 2860 08d2 A795      		ror r26
 2861 08d4 9795      		ror r25
 2862 08d6 8795      		ror r24
 2863 08d8 FA95      		dec r31
 2864 08da 01F4      		brne 1b
 2865 08dc 8770      		andi r24,7
 2866 08de 9927      		clr r25
 2867 08e0 AA27      		clr r26
 2868 08e2 BB27      		clr r27
 2869 08e4 C5FE      		sbrs r12,5
 2870 08e6 00C0      		rjmp .L172
 2871 08e8 5FE1      		ldi r21,31
 2872 08ea 8522      		and r8,r21
 2873 08ec 9924      		clr r9
 2874 08ee AA24      		clr r10
 2875 08f0 BB24      		clr r11
 2876 08f2 880C      		lsl r8
 2877 08f4 991C      		rol r9
 2878 08f6 880C      		lsl r8
 2879 08f8 991C      		rol r9
 2880 08fa E989      		ldd r30,Y+17
 2881 08fc FA89      		ldd r31,Y+18
 2882 08fe E80D      		add r30,r8
 2883 0900 F91D      		adc r31,r9
 2884 0902 8080      		ld r8,Z
 2885 0904 9180      		ldd r9,Z+1
 2886 0906 A280      		ldd r10,Z+2
 2887 0908 B380      		ldd r11,Z+3
 2888 090a 0197      		sbiw r24,1
 2889 090c A109      		sbc r26,__zero_reg__
 2890 090e B109      		sbc r27,__zero_reg__
 2891 0910 F1FE      		sbrs r15,1
 2892 0912 00C0      		rjmp .L173
 2893 0914 8630      		cpi r24,6
 2894 0916 9105      		cpc r25,__zero_reg__
 2895 0918 A105      		cpc r26,__zero_reg__
 2896 091a B105      		cpc r27,__zero_reg__
 2897 091c 01F0      		breq .+2
 2898 091e 00F4      		brsh .+2
 2899 0920 00C0      		rjmp .L533
 2900 0922 2D89      		ldd r18,Y+21
 2901 0924 3E89      		ldd r19,Y+22
 2902 0926 4F89      		ldd r20,Y+23
 2903 0928 588D      		ldd r21,Y+24
 2904 092a C501      		movw r24,r10
 2905 092c B401      		movw r22,r8
 2906 092e 0E94 0000 		call __mulsi3
 2907 0932 6D8B      		std Y+21,r22
 2908 0934 7E8B      		std Y+22,r23
 2909 0936 8F8B      		std Y+23,r24
 2910 0938 988F      		std Y+24,r25
 2911 093a 8D80      		ldd r8,Y+5
 2912 093c 9E80      		ldd r9,Y+6
 2913 093e AF80      		ldd r10,Y+7
 2914 0940 B884      		ldd r11,Y+8
 2915 0942 6D8D      		ldd r22,Y+29
 2916 0944 7E8D      		ldd r23,Y+30
 2917 0946 8F8D      		ldd r24,Y+31
 2918 0948 98A1      		ldd r25,Y+32
 2919 094a 6D83      		std Y+5,r22
 2920 094c 7E83      		std Y+6,r23
 2921 094e 8F83      		std Y+7,r24
 2922 0950 9887      		std Y+8,r25
 2923 0952 00C0      		rjmp .L291
 2924               	.L145:
 2925 0954 D701      		movw r26,r14
 2926 0956 C601      		movw r24,r12
 2927 0958 5FE0      		ldi r21,15
 2928               		1:
 2929 095a B695      		lsr r27
 2930 095c A795      		ror r26
 2931 095e 9795      		ror r25
 2932 0960 8795      		ror r24
 2933 0962 5A95      		dec r21
 2934 0964 01F4      		brne 1b
 2935 0966 8F71      		andi r24,31
 2936 0968 9927      		clr r25
 2937 096a AA27      		clr r26
 2938 096c BB27      		clr r27
 2939 096e 880F      		lsl r24
 2940 0970 991F      		rol r25
 2941 0972 880F      		lsl r24
 2942 0974 991F      		rol r25
 2943 0976 E989      		ldd r30,Y+17
 2944 0978 FA89      		ldd r31,Y+18
 2945 097a E80F      		add r30,r24
 2946 097c F91F      		adc r31,r25
 2947 097e 0081      		ld r16,Z
 2948 0980 1181      		ldd r17,Z+1
 2949 0982 2281      		ldd r18,Z+2
 2950 0984 3381      		ldd r19,Z+3
 2951 0986 B701      		movw r22,r14
 2952 0988 A601      		movw r20,r12
 2953 098a E4E1      		ldi r30,20
 2954               		1:
 2955 098c 7695      		lsr r23
 2956 098e 6795      		ror r22
 2957 0990 5795      		ror r21
 2958 0992 4795      		ror r20
 2959 0994 EA95      		dec r30
 2960 0996 01F4      		brne 1b
 2961 0998 DB01      		movw r26,r22
 2962 099a CA01      		movw r24,r20
 2963 099c 8827      		clr r24
 2964 099e 9870      		andi r25,8
 2965 09a0 AA27      		clr r26
 2966 09a2 BB27      		clr r27
 2967 09a4 0097      		sbiw r24,0
 2968 09a6 A105      		cpc r26,__zero_reg__
 2969 09a8 B105      		cpc r27,__zero_reg__
 2970 09aa 01F0      		breq .L146
 2971 09ac 80E0      		ldi r24,0
 2972 09ae 90EF      		ldi r25,lo8(-16)
 2973 09b0 AFEF      		ldi r26,lo8(-1)
 2974 09b2 BFEF      		ldi r27,lo8(-1)
 2975               	.L146:
 2976 09b4 482B      		or r20,r24
 2977 09b6 592B      		or r21,r25
 2978 09b8 6A2B      		or r22,r26
 2979 09ba 7B2B      		or r23,r27
 2980 09bc 040F      		add r16,r20
 2981 09be 151F      		adc r17,r21
 2982 09c0 261F      		adc r18,r22
 2983 09c2 371F      		adc r19,r23
 2984 09c4 4801      		movw r8,r16
 2985 09c6 5901      		movw r10,r18
 2986 09c8 F0E8      		ldi r31,-128
 2987 09ca BF1A      		sub r11,r31
 2988 09cc 4DEF      		ldi r20,-3
 2989 09ce 8416      		cp r8,r20
 2990 09d0 4FEF      		ldi r20,-1
 2991 09d2 9406      		cpc r9,r20
 2992 09d4 A406      		cpc r10,r20
 2993 09d6 B104      		cpc r11,__zero_reg__
 2994 09d8 00F4      		brsh .+2
 2995 09da 00C0      		rjmp .L147
 2996 09dc D901      		movw r26,r18
 2997 09de C801      		movw r24,r16
 2998 09e0 B051      		subi r27,16
 2999 09e2 0097      		sbiw r24,0
 3000 09e4 A105      		cpc r26,__zero_reg__
 3001 09e6 B240      		sbci r27,2
 3002 09e8 00F0      		brlo .+2
 3003 09ea 00C0      		rjmp .L307
 3004 09ec CD80      		ldd r12,Y+5
 3005 09ee DE80      		ldd r13,Y+6
 3006 09f0 EF80      		ldd r14,Y+7
 3007 09f2 F884      		ldd r15,Y+8
 3008 09f4 64E0      		ldi r22,4
 3009 09f6 C60E      		add r12,r22
 3010 09f8 D11C      		adc r13,__zero_reg__
 3011 09fa E11C      		adc r14,__zero_reg__
 3012 09fc F11C      		adc r15,__zero_reg__
 3013 09fe 0C3F      		cpi r16,-4
 3014 0a00 7FEB      		ldi r23,-65
 3015 0a02 1707      		cpc r17,r23
 3016 0a04 2105      		cpc r18,__zero_reg__
 3017 0a06 71E1      		ldi r23,17
 3018 0a08 3707      		cpc r19,r23
 3019 0a0a 01F4      		brne .+2
 3020 0a0c 00C0      		rjmp .L534
 3021 0a0e 083F      		cpi r16,-8
 3022 0a10 BFEB      		ldi r27,-65
 3023 0a12 1B07      		cpc r17,r27
 3024 0a14 2105      		cpc r18,__zero_reg__
 3025 0a16 B1E1      		ldi r27,17
 3026 0a18 3B07      		cpc r19,r27
 3027 0a1a 01F0      		breq .+2
 3028 0a1c 00C0      		rjmp .L150
 3029 0a1e ADA1      		ldd r26,Y+37
 3030 0a20 BEA1      		ldd r27,Y+38
 3031 0a22 8D90      		ld r8,X+
 3032 0a24 9D90      		ld r9,X+
 3033 0a26 AD90      		ld r10,X+
 3034 0a28 BC90      		ld r11,X
 3035 0a2a 8D8A      		std Y+21,r8
 3036 0a2c 9E8A      		std Y+22,r9
 3037 0a2e AF8A      		std Y+23,r10
 3038 0a30 B88E      		std Y+24,r11
 3039 0a32 8D80      		ldd r8,Y+5
 3040 0a34 9E80      		ldd r9,Y+6
 3041 0a36 AF80      		ldd r10,Y+7
 3042 0a38 B884      		ldd r11,Y+8
 3043 0a3a CD82      		std Y+5,r12
 3044 0a3c DE82      		std Y+6,r13
 3045 0a3e EF82      		std Y+7,r14
 3046 0a40 F886      		std Y+8,r15
 3047 0a42 00C0      		rjmp .L291
 3048               	.L160:
 3049 0a44 D701      		movw r26,r14
 3050 0a46 C601      		movw r24,r12
 3051 0a48 1FE0      		ldi r17,15
 3052               		1:
 3053 0a4a B695      		lsr r27
 3054 0a4c A795      		ror r26
 3055 0a4e 9795      		ror r25
 3056 0a50 8795      		ror r24
 3057 0a52 1A95      		dec r17
 3058 0a54 01F4      		brne 1b
 3059 0a56 8F71      		andi r24,31
 3060 0a58 9927      		clr r25
 3061 0a5a AA27      		clr r26
 3062 0a5c BB27      		clr r27
 3063 0a5e 880F      		lsl r24
 3064 0a60 991F      		rol r25
 3065 0a62 880F      		lsl r24
 3066 0a64 991F      		rol r25
 3067 0a66 E989      		ldd r30,Y+17
 3068 0a68 FA89      		ldd r31,Y+18
 3069 0a6a E80F      		add r30,r24
 3070 0a6c F91F      		adc r31,r25
 3071 0a6e 8081      		ld r24,Z
 3072 0a70 9181      		ldd r25,Z+1
 3073 0a72 A281      		ldd r26,Z+2
 3074 0a74 B381      		ldd r27,Z+3
 3075 0a76 4601      		movw r8,r12
 3076 0a78 5701      		movw r10,r14
 3077 0a7a 24E1      		ldi r18,20
 3078               		1:
 3079 0a7c B694      		lsr r11
 3080 0a7e A794      		ror r10
 3081 0a80 9794      		ror r9
 3082 0a82 8794      		ror r8
 3083 0a84 2A95      		dec r18
 3084 0a86 01F4      		brne 1b
 3085 0a88 B501      		movw r22,r10
 3086 0a8a A401      		movw r20,r8
 3087 0a8c 4F71      		andi r20,31
 3088 0a8e 5527      		clr r21
 3089 0a90 6627      		clr r22
 3090 0a92 7727      		clr r23
 3091 0a94 FA01      		movw r30,r20
 3092 0a96 EE0F      		lsl r30
 3093 0a98 FF1F      		rol r31
 3094 0a9a EE0F      		lsl r30
 3095 0a9c FF1F      		rol r31
 3096 0a9e 2989      		ldd r18,Y+17
 3097 0aa0 3A89      		ldd r19,Y+18
 3098 0aa2 E20F      		add r30,r18
 3099 0aa4 F31F      		adc r31,r19
 3100 0aa6 0081      		ld r16,Z
 3101 0aa8 0D8B      		std Y+21,r16
 3102 0aaa 1181      		ldd r17,Z+1
 3103 0aac 1D8F      		std Y+29,r17
 3104 0aae 4281      		ldd r20,Z+2
 3105 0ab0 5381      		ldd r21,Z+3
 3106 0ab2 20EE      		ldi r18,224
 3107 0ab4 8222      		and r8,r18
 3108 0ab6 2FE0      		ldi r18,15
 3109 0ab8 9222      		and r9,r18
 3110 0aba AA24      		clr r10
 3111 0abc BB24      		clr r11
 3112 0abe 9501      		movw r18,r10
 3113 0ac0 8401      		movw r16,r8
 3114 0ac2 0429      		or r16,r4
 3115 0ac4 1529      		or r17,r5
 3116 0ac6 2629      		or r18,r6
 3117 0ac8 3729      		or r19,r7
 3118 0aca 93FE      		sbrs r9,3
 3119 0acc 00C0      		rjmp .L161
 3120 0ace 106F      		ori r17,240
 3121 0ad0 2F6F      		ori r18,255
 3122 0ad2 3F6F      		ori r19,255
 3123               	.L161:
 3124 0ad4 080F      		add r16,r24
 3125 0ad6 191F      		adc r17,r25
 3126 0ad8 2A1F      		adc r18,r26
 3127 0ada 3B1F      		adc r19,r27
 3128 0adc 4801      		movw r8,r16
 3129 0ade 5901      		movw r10,r18
 3130 0ae0 60E8      		ldi r22,-128
 3131 0ae2 B61A      		sub r11,r22
 3132 0ae4 7DEF      		ldi r23,-3
 3133 0ae6 8716      		cp r8,r23
 3134 0ae8 7FEF      		ldi r23,-1
 3135 0aea 9706      		cpc r9,r23
 3136 0aec A706      		cpc r10,r23
 3137 0aee B104      		cpc r11,__zero_reg__
 3138 0af0 00F4      		brsh .+2
 3139 0af2 00C0      		rjmp .L162
 3140 0af4 D901      		movw r26,r18
 3141 0af6 C801      		movw r24,r16
 3142 0af8 B051      		subi r27,16
 3143 0afa 0097      		sbiw r24,0
 3144 0afc A105      		cpc r26,__zero_reg__
 3145 0afe B240      		sbci r27,2
 3146 0b00 00F0      		brlo .+2
 3147 0b02 00C0      		rjmp .L310
 3148 0b04 0430      		cpi r16,4
 3149 0b06 F0E4      		ldi r31,64
 3150 0b08 1F07      		cpc r17,r31
 3151 0b0a 2105      		cpc r18,__zero_reg__
 3152 0b0c F1E1      		ldi r31,17
 3153 0b0e 3F07      		cpc r19,r31
 3154 0b10 01F4      		brne .+2
 3155 0b12 00C0      		rjmp .L535
 3156 0b14 0115      		cp r16,__zero_reg__
 3157 0b16 60E4      		ldi r22,64
 3158 0b18 1607      		cpc r17,r22
 3159 0b1a 2105      		cpc r18,__zero_reg__
 3160 0b1c 61E1      		ldi r22,17
 3161 0b1e 3607      		cpc r19,r22
 3162 0b20 01F4      		brne .+2
 3163 0b22 00C0      		rjmp .L536
 3164 0b24 0115      		cp r16,__zero_reg__
 3165 0b26 1105      		cpc r17,__zero_reg__
 3166 0b28 40E1      		ldi r20,16
 3167 0b2a 2407      		cpc r18,r20
 3168 0b2c 41E1      		ldi r20,17
 3169 0b2e 3407      		cpc r19,r20
 3170 0b30 01F4      		brne .+4
 3171 0b32 0C94 0000 		jmp .L537
 3172 0b36 0115      		cp r16,__zero_reg__
 3173 0b38 1105      		cpc r17,__zero_reg__
 3174 0b3a 2105      		cpc r18,__zero_reg__
 3175 0b3c 3041      		sbci r19,16
 3176 0b3e 01F4      		brne .+4
 3177 0b40 0C94 0000 		jmp .L538
 3178               	.L144:
 3179 0b44 8D80      		ldd r8,Y+5
 3180 0b46 9E80      		ldd r9,Y+6
 3181 0b48 AF80      		ldd r10,Y+7
 3182 0b4a B884      		ldd r11,Y+8
 3183               	.L143:
 3184 0b4c 9501      		movw r18,r10
 3185 0b4e 8401      		movw r16,r8
 3186 0b50 0C5F      		subi r16,-4
 3187 0b52 1F4F      		sbci r17,-1
 3188 0b54 2F4F      		sbci r18,-1
 3189 0b56 3F4F      		sbci r19,-1
 3190 0b58 0D83      		std Y+5,r16
 3191 0b5a 1E83      		std Y+6,r17
 3192 0b5c 2F83      		std Y+7,r18
 3193 0b5e 3887      		std Y+8,r19
 3194 0b60 00C0      		rjmp .L278
 3195               	.L132:
 3196 0b62 CC24      		clr r12
 3197 0b64 30EF      		ldi r19,240
 3198 0b66 D322      		and r13,r19
 3199 0b68 8D80      		ldd r8,Y+5
 3200 0b6a 9E80      		ldd r9,Y+6
 3201 0b6c AF80      		ldd r10,Y+7
 3202 0b6e B884      		ldd r11,Y+8
 3203 0b70 8C0C      		add r8,r12
 3204 0b72 9D1C      		adc r9,r13
 3205 0b74 AE1C      		adc r10,r14
 3206 0b76 BF1C      		adc r11,r15
 3207               	.L518:
 3208 0b78 8D8A      		std Y+21,r8
 3209 0b7a 9E8A      		std Y+22,r9
 3210 0b7c AF8A      		std Y+23,r10
 3211 0b7e B88E      		std Y+24,r11
 3212               	.L521:
 3213 0b80 8D80      		ldd r8,Y+5
 3214 0b82 9E80      		ldd r9,Y+6
 3215 0b84 AF80      		ldd r10,Y+7
 3216 0b86 B884      		ldd r11,Y+8
 3217 0b88 9501      		movw r18,r10
 3218 0b8a 8401      		movw r16,r8
 3219 0b8c 0C5F      		subi r16,-4
 3220 0b8e 1F4F      		sbci r17,-1
 3221 0b90 2F4F      		sbci r18,-1
 3222 0b92 3F4F      		sbci r19,-1
 3223 0b94 0D83      		std Y+5,r16
 3224 0b96 1E83      		std Y+6,r17
 3225 0b98 2F83      		std Y+7,r18
 3226 0b9a 3887      		std Y+8,r19
 3227               	.L291:
 3228 0b9c 4114      		cp r4,__zero_reg__
 3229 0b9e 5104      		cpc r5,__zero_reg__
 3230 0ba0 6104      		cpc r6,__zero_reg__
 3231 0ba2 7104      		cpc r7,__zero_reg__
 3232 0ba4 01F0      		breq .L278
 3233 0ba6 440C      		lsl r4
 3234 0ba8 551C      		rol r5
 3235 0baa 440C      		lsl r4
 3236 0bac 551C      		rol r5
 3237 0bae E989      		ldd r30,Y+17
 3238 0bb0 FA89      		ldd r31,Y+18
 3239 0bb2 E40D      		add r30,r4
 3240 0bb4 F51D      		adc r31,r5
 3241 0bb6 8D89      		ldd r24,Y+21
 3242 0bb8 9E89      		ldd r25,Y+22
 3243 0bba AF89      		ldd r26,Y+23
 3244 0bbc B88D      		ldd r27,Y+24
 3245 0bbe 8083      		st Z,r24
 3246 0bc0 9183      		std Z+1,r25
 3247 0bc2 A283      		std Z+2,r26
 3248 0bc4 B383      		std Z+3,r27
 3249               	.L278:
 3250 0bc6 ED84      		ldd r14,Y+13
 3251 0bc8 FE84      		ldd r15,Y+14
 3252 0bca 0F85      		ldd r16,Y+15
 3253 0bcc 1889      		ldd r17,Y+16
 3254 0bce 298D      		ldd r18,Y+25
 3255 0bd0 3A8D      		ldd r19,Y+26
 3256 0bd2 4B8D      		ldd r20,Y+27
 3257 0bd4 5C8D      		ldd r21,Y+28
 3258 0bd6 E216      		cp r14,r18
 3259 0bd8 F306      		cpc r15,r19
 3260 0bda 0407      		cpc r16,r20
 3261 0bdc 1507      		cpc r17,r21
 3262 0bde 01F4      		brne .+2
 3263 0be0 00C0      		rjmp .L281
 3264 0be2 C801      		movw r24,r16
 3265 0be4 B701      		movw r22,r14
 3266 0be6 6F5F      		subi r22,-1
 3267 0be8 7F4F      		sbci r23,-1
 3268 0bea 8F4F      		sbci r24,-1
 3269 0bec 9F4F      		sbci r25,-1
 3270 0bee 6D87      		std Y+13,r22
 3271 0bf0 7E87      		std Y+14,r23
 3272 0bf2 8F87      		std Y+15,r24
 3273 0bf4 988B      		std Y+16,r25
 3274 0bf6 74E0      		ldi r23,4
 3275 0bf8 870E      		add r8,r23
 3276 0bfa 911C      		adc r9,__zero_reg__
 3277 0bfc A11C      		adc r10,__zero_reg__
 3278 0bfe 70E8      		ldi r23,-128
 3279 0c00 B71E      		adc r11,r23
 3280 0c02 8114      		cp r8,__zero_reg__
 3281 0c04 9104      		cpc r9,__zero_reg__
 3282 0c06 A104      		cpc r10,__zero_reg__
 3283 0c08 81E0      		ldi r24,1
 3284 0c0a B806      		cpc r11,r24
 3285 0c0c 00F0      		brlo .+2
 3286 0c0e 00C0      		rjmp .L305
 3287 0c10 D501      		movw r26,r10
 3288 0c12 C401      		movw r24,r8
 3289 0c14 8370      		andi r24,3
 3290 0c16 9927      		clr r25
 3291 0c18 AA27      		clr r26
 3292 0c1a BB27      		clr r27
 3293 0c1c 892B      		or r24,r25
 3294 0c1e 8A2B      		or r24,r26
 3295 0c20 8B2B      		or r24,r27
 3296 0c22 01F4      		brne .+2
 3297 0c24 00C0      		rjmp .L125
 3298               	.L306:
 3299 0c26 41E0      		ldi r20,lo8(1)
 3300 0c28 50E0      		ldi r21,0
 3301 0c2a 60E0      		ldi r22,0
 3302 0c2c 70E0      		ldi r23,0
 3303 0c2e 00C0      		rjmp .L295
 3304               	.L130:
 3305 0c30 9701      		movw r18,r14
 3306 0c32 8601      		movw r16,r12
 3307 0c34 0027      		clr r16
 3308 0c36 107F      		andi r17,240
 3309 0c38 0D8B      		std Y+21,r16
 3310 0c3a 1E8B      		std Y+22,r17
 3311 0c3c 2F8B      		std Y+23,r18
 3312 0c3e 388F      		std Y+24,r19
 3313 0c40 8D80      		ldd r8,Y+5
 3314 0c42 9E80      		ldd r9,Y+6
 3315 0c44 AF80      		ldd r10,Y+7
 3316 0c46 B884      		ldd r11,Y+8
 3317 0c48 A501      		movw r20,r10
 3318 0c4a 9401      		movw r18,r8
 3319 0c4c 2C5F      		subi r18,-4
 3320 0c4e 3F4F      		sbci r19,-1
 3321 0c50 4F4F      		sbci r20,-1
 3322 0c52 5F4F      		sbci r21,-1
 3323 0c54 2D83      		std Y+5,r18
 3324 0c56 3E83      		std Y+6,r19
 3325 0c58 4F83      		std Y+7,r20
 3326 0c5a 5887      		std Y+8,r21
 3327 0c5c 00C0      		rjmp .L291
 3328               	.L258:
 3329 0c5e D701      		movw r26,r14
 3330 0c60 C601      		movw r24,r12
 3331 0c62 7FE0      		ldi r23,15
 3332               		1:
 3333 0c64 B695      		lsr r27
 3334 0c66 A795      		ror r26
 3335 0c68 9795      		ror r25
 3336 0c6a 8795      		ror r24
 3337 0c6c 7A95      		dec r23
 3338 0c6e 01F4      		brne 1b
 3339 0c70 8F71      		andi r24,31
 3340 0c72 9927      		clr r25
 3341 0c74 AA27      		clr r26
 3342 0c76 BB27      		clr r27
 3343 0c78 880F      		lsl r24
 3344 0c7a 991F      		rol r25
 3345 0c7c 880F      		lsl r24
 3346 0c7e 991F      		rol r25
 3347 0c80 E989      		ldd r30,Y+17
 3348 0c82 FA89      		ldd r31,Y+18
 3349 0c84 E80F      		add r30,r24
 3350 0c86 F91F      		adc r31,r25
 3351 0c88 0081      		ld r16,Z
 3352 0c8a 1181      		ldd r17,Z+1
 3353 0c8c 2281      		ldd r18,Z+2
 3354 0c8e 3381      		ldd r19,Z+3
 3355 0c90 4801      		movw r8,r16
 3356 0c92 5901      		movw r10,r18
 3357 0c94 B0E8      		ldi r27,-128
 3358 0c96 BB1A      		sub r11,r27
 3359 0c98 EDEF      		ldi r30,-3
 3360 0c9a 8E16      		cp r8,r30
 3361 0c9c EFEF      		ldi r30,-1
 3362 0c9e 9E06      		cpc r9,r30
 3363 0ca0 AE06      		cpc r10,r30
 3364 0ca2 B104      		cpc r11,__zero_reg__
 3365 0ca4 00F4      		brsh .+2
 3366 0ca6 00C0      		rjmp .L539
 3367 0ca8 88E0      		ldi r24,lo8(8)
 3368 0caa 90E0      		ldi r25,0
 3369 0cac A0E0      		ldi r26,0
 3370 0cae B0E0      		ldi r27,0
 3371               	.L148:
 3372 0cb0 AC01      		movw r20,r24
 3373 0cb2 BD01      		movw r22,r26
 3374 0cb4 4150      		subi r20,1
 3375 0cb6 5109      		sbc r21,__zero_reg__
 3376 0cb8 6109      		sbc r22,__zero_reg__
 3377 0cba 7109      		sbc r23,__zero_reg__
 3378 0cbc 0697      		sbiw r24,6
 3379 0cbe A109      		sbc r26,__zero_reg__
 3380 0cc0 B109      		sbc r27,__zero_reg__
 3381 0cc2 0397      		sbiw r24,3
 3382 0cc4 A105      		cpc r26,__zero_reg__
 3383 0cc6 B105      		cpc r27,__zero_reg__
 3384 0cc8 00F4      		brsh .+2
 3385 0cca 00C0      		rjmp .L289
 3386 0ccc 00C0      		rjmp .L522
 3387               	.L294:
 3388 0cce 8F36      		cpi r24,111
 3389 0cd0 9105      		cpc r25,__zero_reg__
 3390 0cd2 A105      		cpc r26,__zero_reg__
 3391 0cd4 B105      		cpc r27,__zero_reg__
 3392 0cd6 01F4      		brne .+2
 3393 0cd8 00C0      		rjmp .L297
 3394 0cda 00F0      		brlo .+2
 3395 0cdc 00C0      		rjmp .L298
 3396 0cde 8336      		cpi r24,99
 3397 0ce0 9105      		cpc r25,__zero_reg__
 3398 0ce2 A105      		cpc r26,__zero_reg__
 3399 0ce4 B105      		cpc r27,__zero_reg__
 3400 0ce6 01F4      		brne .+2
 3401 0ce8 00C0      		rjmp .L299
 3402 0cea 8736      		cpi r24,103
 3403 0cec 9105      		cpc r25,__zero_reg__
 3404 0cee A105      		cpc r26,__zero_reg__
 3405 0cf0 B105      		cpc r27,__zero_reg__
 3406 0cf2 01F0      		breq .+2
 3407 0cf4 00C0      		rjmp .L142
 3408 0cf6 D701      		movw r26,r14
 3409 0cf8 C601      		movw r24,r12
 3410 0cfa 24E1      		ldi r18,20
 3411               		1:
 3412 0cfc B695      		lsr r27
 3413 0cfe A795      		ror r26
 3414 0d00 9795      		ror r25
 3415 0d02 8795      		ror r24
 3416 0d04 2A95      		dec r18
 3417 0d06 01F4      		brne 1b
 3418 0d08 AC01      		movw r20,r24
 3419 0d0a BD01      		movw r22,r26
 3420 0d0c 4427      		clr r20
 3421 0d0e 5870      		andi r21,8
 3422 0d10 6627      		clr r22
 3423 0d12 7727      		clr r23
 3424 0d14 4115      		cp r20,__zero_reg__
 3425 0d16 5105      		cpc r21,__zero_reg__
 3426 0d18 6105      		cpc r22,__zero_reg__
 3427 0d1a 7105      		cpc r23,__zero_reg__
 3428 0d1c 01F0      		breq .L134
 3429 0d1e 40E0      		ldi r20,0
 3430 0d20 50EF      		ldi r21,lo8(-16)
 3431 0d22 6FEF      		ldi r22,lo8(-1)
 3432 0d24 7FEF      		ldi r23,lo8(-1)
 3433               	.L134:
 3434 0d26 0D81      		ldd r16,Y+5
 3435 0d28 1E81      		ldd r17,Y+6
 3436 0d2a 2F81      		ldd r18,Y+7
 3437 0d2c 3885      		ldd r19,Y+8
 3438 0d2e 0C5F      		subi r16,-4
 3439 0d30 1F4F      		sbci r17,-1
 3440 0d32 2F4F      		sbci r18,-1
 3441 0d34 3F4F      		sbci r19,-1
 3442 0d36 0D8B      		std Y+21,r16
 3443 0d38 1E8B      		std Y+22,r17
 3444 0d3a 2F8B      		std Y+23,r18
 3445 0d3c 388F      		std Y+24,r19
 3446 0d3e 1FE0      		ldi r17,15
 3447               		1:
 3448 0d40 F694      		lsr r15
 3449 0d42 E794      		ror r14
 3450 0d44 D794      		ror r13
 3451 0d46 C794      		ror r12
 3452 0d48 1A95      		dec r17
 3453 0d4a 01F4      		brne 1b
 3454 0d4c 1FE1      		ldi r17,31
 3455 0d4e C122      		and r12,r17
 3456 0d50 DD24      		clr r13
 3457 0d52 EE24      		clr r14
 3458 0d54 FF24      		clr r15
 3459 0d56 CC0C      		lsl r12
 3460 0d58 DD1C      		rol r13
 3461 0d5a CC0C      		lsl r12
 3462 0d5c DD1C      		rol r13
 3463 0d5e E989      		ldd r30,Y+17
 3464 0d60 FA89      		ldd r31,Y+18
 3465 0d62 EC0D      		add r30,r12
 3466 0d64 FD1D      		adc r31,r13
 3467 0d66 842B      		or r24,r20
 3468 0d68 952B      		or r25,r21
 3469 0d6a A62B      		or r26,r22
 3470 0d6c B72B      		or r27,r23
 3471 0d6e 8080      		ld r8,Z
 3472 0d70 9180      		ldd r9,Z+1
 3473 0d72 A280      		ldd r10,Z+2
 3474 0d74 B380      		ldd r11,Z+3
 3475 0d76 880D      		add r24,r8
 3476 0d78 991D      		adc r25,r9
 3477 0d7a AA1D      		adc r26,r10
 3478 0d7c BB1D      		adc r27,r11
 3479 0d7e 9C01      		movw r18,r24
 3480 0d80 AD01      		movw r20,r26
 3481 0d82 2E7F      		andi r18,254
 3482 0d84 2D83      		std Y+5,r18
 3483 0d86 3E83      		std Y+6,r19
 3484 0d88 4F83      		std Y+7,r20
 3485 0d8a 5887      		std Y+8,r21
 3486 0d8c 2450      		subi r18,4
 3487 0d8e 3109      		sbc r19,__zero_reg__
 3488 0d90 4109      		sbc r20,__zero_reg__
 3489 0d92 5109      		sbc r21,__zero_reg__
 3490 0d94 4901      		movw r8,r18
 3491 0d96 5A01      		movw r10,r20
 3492 0d98 00C0      		rjmp .L291
 3493               	.L531:
 3494 0d9a E12C      		mov r14,__zero_reg__
 3495 0d9c A2E0      		ldi r26,lo8(2)
 3496 0d9e FA2E      		mov r15,r26
 3497 0da0 E01A      		sub r14,r16
 3498 0da2 F10A      		sbc r15,r17
 3499 0da4 829D      		mul r24,r2
 3500 0da6 B001      		movw r22,r0
 3501 0da8 839D      		mul r24,r3
 3502 0daa 700D      		add r23,r0
 3503 0dac 1124      		clr __zero_reg__
 3504 0dae 600F      		add r22,r16
 3505 0db0 711F      		adc r23,r17
 3506 0db2 6050      		subi r22,lo8(-(pool))
 3507 0db4 7040      		sbci r23,hi8(-(pool))
 3508 0db6 A701      		movw r20,r14
 3509 0db8 CE01      		movw r24,r28
 3510 0dba 0196      		adiw r24,1
 3511 0dbc 0E94 0000 		call memcpy
 3512 0dc0 43E0      		ldi r20,lo8(3)
 3513 0dc2 C501      		movw r24,r10
 3514 0dc4 B401      		movw r22,r8
 3515 0dc6 0E94 0000 		call read_buf
 3516 0dca A801      		movw r20,r16
 3517 0dcc 4C5F      		subi r20,-4
 3518 0dce 5140      		sbci r21,1
 3519 0dd0 829D      		mul r24,r2
 3520 0dd2 B001      		movw r22,r0
 3521 0dd4 839D      		mul r24,r3
 3522 0dd6 700D      		add r23,r0
 3523 0dd8 1124      		clr __zero_reg__
 3524 0dda 6050      		subi r22,lo8(-(pool))
 3525 0ddc 7040      		sbci r23,hi8(-(pool))
 3526 0dde 81E0      		ldi r24,lo8(1)
 3527 0de0 90E0      		ldi r25,0
 3528 0de2 8C0F      		add r24,r28
 3529 0de4 9D1F      		adc r25,r29
 3530 0de6 8E0D      		add r24,r14
 3531 0de8 9F1D      		adc r25,r15
 3532 0dea 0E94 0000 		call memcpy
 3533 0dee C980      		ldd r12,Y+1
 3534 0df0 DA80      		ldd r13,Y+2
 3535 0df2 EB80      		ldd r14,Y+3
 3536 0df4 FC80      		ldd r15,Y+4
 3537 0df6 C701      		movw r24,r14
 3538 0df8 B601      		movw r22,r12
 3539 0dfa 0E94 0000 		call UART_puthex32
 3540 0dfe 80E0      		ldi r24,lo8(__c.32)
 3541 0e00 90E0      		ldi r25,hi8(__c.32)
 3542 0e02 0E94 0000 		call UART_puts_p
 3543 0e06 00C0      		rjmp .L129
 3544               	.L298:
 3545 0e08 8337      		cpi r24,115
 3546 0e0a 9105      		cpc r25,__zero_reg__
 3547 0e0c A105      		cpc r26,__zero_reg__
 3548 0e0e B105      		cpc r27,__zero_reg__
 3549 0e10 01F0      		breq .+2
 3550 0e12 00C0      		rjmp .L142
 3551 0e14 4601      		movw r8,r12
 3552 0e16 5701      		movw r10,r14
 3553 0e18 94E1      		ldi r25,20
 3554               		1:
 3555 0e1a B694      		lsr r11
 3556 0e1c A794      		ror r10
 3557 0e1e 9794      		ror r9
 3558 0e20 8794      		ror r8
 3559 0e22 9A95      		dec r25
 3560 0e24 01F4      		brne 1b
 3561 0e26 9701      		movw r18,r14
 3562 0e28 8601      		movw r16,r12
 3563 0e2a 4CE0      		ldi r20,12
 3564               		1:
 3565 0e2c 3695      		lsr r19
 3566 0e2e 2795      		ror r18
 3567 0e30 1795      		ror r17
 3568 0e32 0795      		ror r16
 3569 0e34 4A95      		dec r20
 3570 0e36 01F4      		brne 1b
 3571 0e38 B901      		movw r22,r18
 3572 0e3a A801      		movw r20,r16
 3573 0e3c 4770      		andi r20,7
 3574 0e3e 5527      		clr r21
 3575 0e40 6627      		clr r22
 3576 0e42 7727      		clr r23
 3577 0e44 4D8F      		std Y+29,r20
 3578 0e46 5E8F      		std Y+30,r21
 3579 0e48 6F8F      		std Y+31,r22
 3580 0e4a 78A3      		std Y+32,r23
 3581 0e4c 0370      		andi r16,3
 3582 0e4e 1127      		clr r17
 3583 0e50 2227      		clr r18
 3584 0e52 3327      		clr r19
 3585 0e54 0115      		cp r16,__zero_reg__
 3586 0e56 1105      		cpc r17,__zero_reg__
 3587 0e58 2105      		cpc r18,__zero_reg__
 3588 0e5a 3105      		cpc r19,__zero_reg__
 3589 0e5c 01F4      		brne .+2
 3590 0e5e 00C0      		rjmp .L198
 3591 0e60 0FE0      		ldi r16,15
 3592               		1:
 3593 0e62 F694      		lsr r15
 3594 0e64 E794      		ror r14
 3595 0e66 D794      		ror r13
 3596 0e68 C794      		ror r12
 3597 0e6a 0A95      		dec r16
 3598 0e6c 01F4      		brne 1b
 3599 0e6e 8601      		movw r16,r12
 3600 0e70 0F71      		andi r16,31
 3601 0e72 1127      		clr r17
 3602 0e74 F801      		movw r30,r16
 3603 0e76 EE0F      		lsl r30
 3604 0e78 FF1F      		rol r31
 3605 0e7a EE0F      		lsl r30
 3606 0e7c FF1F      		rol r31
 3607 0e7e 6989      		ldd r22,Y+17
 3608 0e80 7A89      		ldd r23,Y+18
 3609 0e82 E60F      		add r30,r22
 3610 0e84 F71F      		adc r31,r23
 3611 0e86 C080      		ld r12,Z
 3612 0e88 D180      		ldd r13,Z+1
 3613 0e8a E280      		ldd r14,Z+2
 3614 0e8c F380      		ldd r15,Z+3
 3615 0e8e 75E4      		ldi r23,69
 3616 0e90 8716      		cp r8,r23
 3617 0e92 73E0      		ldi r23,3
 3618 0e94 9706      		cpc r9,r23
 3619 0e96 A104      		cpc r10,__zero_reg__
 3620 0e98 B104      		cpc r11,__zero_reg__
 3621 0e9a 00F0      		brlo .+2
 3622 0e9c 00C0      		rjmp .L199
 3623 0e9e 8114      		cp r8,__zero_reg__
 3624 0ea0 83E0      		ldi r24,3
 3625 0ea2 9806      		cpc r9,r24
 3626 0ea4 A104      		cpc r10,__zero_reg__
 3627 0ea6 B104      		cpc r11,__zero_reg__
 3628 0ea8 00F0      		brlo .L200
 3629 0eaa D501      		movw r26,r10
 3630 0eac C401      		movw r24,r8
 3631 0eae 9350      		subi r25,3
 3632 0eb0 A109      		sbc r26,__zero_reg__
 3633 0eb2 B109      		sbc r27,__zero_reg__
 3634 0eb4 8434      		cpi r24,68
 3635 0eb6 9105      		cpc r25,__zero_reg__
 3636 0eb8 A105      		cpc r26,__zero_reg__
 3637 0eba B105      		cpc r27,__zero_reg__
 3638 0ebc 01F0      		breq .+2
 3639 0ebe 00F4      		brsh .+2
 3640 0ec0 00C0      		rjmp .L540
 3641               	.L200:
 3642 0ec2 50E4      		ldi r21,64
 3643 0ec4 8516      		cp r8,r21
 3644 0ec6 51E0      		ldi r21,1
 3645 0ec8 9506      		cpc r9,r21
 3646 0eca 01F4      		brne .+2
 3647 0ecc 00C0      		rjmp .L541
 3648               	.L321:
 3649 0ece 80E0      		ldi r24,0
 3650 0ed0 90E0      		ldi r25,0
 3651 0ed2 DC01      		movw r26,r24
 3652               	.L212:
 3653 0ed4 8D8B      		std Y+21,r24
 3654 0ed6 9E8B      		std Y+22,r25
 3655 0ed8 AF8B      		std Y+23,r26
 3656 0eda B88F      		std Y+24,r27
 3657               	.L211:
 3658 0edc 8D8D      		ldd r24,Y+29
 3659 0ede 9E8D      		ldd r25,Y+30
 3660 0ee0 AF8D      		ldd r26,Y+31
 3661 0ee2 B8A1      		ldd r27,Y+32
 3662 0ee4 8530      		cpi r24,5
 3663 0ee6 9105      		cpc r25,__zero_reg__
 3664 0ee8 A105      		cpc r26,__zero_reg__
 3665 0eea B105      		cpc r27,__zero_reg__
 3666 0eec 01F4      		brne .+4
 3667 0eee 0C94 0000 		jmp .L213
 3668 0ef2 00F0      		brlo .+4
 3669 0ef4 0C94 0000 		jmp .L234
 3670 0ef8 8230      		cpi r24,2
 3671 0efa 9105      		cpc r25,__zero_reg__
 3672 0efc A105      		cpc r26,__zero_reg__
 3673 0efe B105      		cpc r27,__zero_reg__
 3674 0f00 01F4      		brne .+4
 3675 0f02 0C94 0000 		jmp .L215
 3676 0f06 0397      		sbiw r24,3
 3677 0f08 A105      		cpc r26,__zero_reg__
 3678 0f0a B105      		cpc r27,__zero_reg__
 3679 0f0c 01F4      		brne .+2
 3680 0f0e 00C0      		rjmp .L216
 3681 0f10 00C0      		rjmp .L235
 3682               	.L299:
 3683 0f12 D701      		movw r26,r14
 3684 0f14 C601      		movw r24,r12
 3685 0f16 14E1      		ldi r17,20
 3686               		1:
 3687 0f18 B695      		lsr r27
 3688 0f1a A795      		ror r26
 3689 0f1c 9795      		ror r25
 3690 0f1e 8795      		ror r24
 3691 0f20 1A95      		dec r17
 3692 0f22 01F4      		brne 1b
 3693 0f24 4E71      		andi r20,30
 3694 0f26 5527      		clr r21
 3695 0f28 6627      		clr r22
 3696 0f2a 7727      		clr r23
 3697 0f2c 4C01      		movw r8,r24
 3698 0f2e 5D01      		movw r10,r26
 3699 0f30 E0EE      		ldi r30,224
 3700 0f32 8E22      		and r8,r30
 3701 0f34 E7E0      		ldi r30,7
 3702 0f36 9E22      		and r9,r30
 3703 0f38 AA24      		clr r10
 3704 0f3a BB24      		clr r11
 3705 0f3c 4829      		or r20,r8
 3706 0f3e 5929      		or r21,r9
 3707 0f40 6A29      		or r22,r10
 3708 0f42 7B29      		or r23,r11
 3709 0f44 4601      		movw r8,r12
 3710 0f46 5701      		movw r10,r14
 3711 0f48 880C      		lsl r8
 3712 0f4a 991C      		rol r9
 3713 0f4c AA1C      		rol r10
 3714 0f4e BB1C      		rol r11
 3715 0f50 880C      		lsl r8
 3716 0f52 991C      		rol r9
 3717 0f54 AA1C      		rol r10
 3718 0f56 BB1C      		rol r11
 3719 0f58 880C      		lsl r8
 3720 0f5a 991C      		rol r9
 3721 0f5c AA1C      		rol r10
 3722 0f5e BB1C      		rol r11
 3723 0f60 880C      		lsl r8
 3724 0f62 991C      		rol r9
 3725 0f64 AA1C      		rol r10
 3726 0f66 BB1C      		rol r11
 3727 0f68 8824      		clr r8
 3728 0f6a F8E0      		ldi r31,8
 3729 0f6c 9F22      		and r9,r31
 3730 0f6e AA24      		clr r10
 3731 0f70 BB24      		clr r11
 3732 0f72 4829      		or r20,r8
 3733 0f74 5929      		or r21,r9
 3734 0f76 6A29      		or r22,r10
 3735 0f78 7B29      		or r23,r11
 3736 0f7a 9701      		movw r18,r14
 3737 0f7c 8601      		movw r16,r12
 3738 0f7e 0027      		clr r16
 3739 0f80 37FD      		sbrc r19,7
 3740 0f82 0395      		inc r16
 3741 0f84 1127      		clr r17
 3742 0f86 2227      		clr r18
 3743 0f88 3327      		clr r19
 3744 0f8a FCE0      		ldi r31,12
 3745               		1:
 3746 0f8c 000F      		lsl r16
 3747 0f8e 111F      		rol r17
 3748 0f90 221F      		rol r18
 3749 0f92 331F      		rol r19
 3750 0f94 FA95      		dec r31
 3751 0f96 01F4      		brne 1b
 3752 0f98 402B      		or r20,r16
 3753 0f9a 512B      		or r21,r17
 3754 0f9c 622B      		or r22,r18
 3755 0f9e 732B      		or r23,r19
 3756 0fa0 012B      		or r16,r17
 3757 0fa2 022B      		or r16,r18
 3758 0fa4 032B      		or r16,r19
 3759 0fa6 01F0      		breq .L135
 3760 0fa8 506E      		ori r21,224
 3761 0faa 6F6F      		ori r22,255
 3762 0fac 7F6F      		ori r23,255
 3763               	.L135:
 3764 0fae 9701      		movw r18,r14
 3765 0fb0 8601      		movw r16,r12
 3766 0fb2 FFE0      		ldi r31,15
 3767               		1:
 3768 0fb4 3695      		lsr r19
 3769 0fb6 2795      		ror r18
 3770 0fb8 1795      		ror r17
 3771 0fba 0795      		ror r16
 3772 0fbc FA95      		dec r31
 3773 0fbe 01F4      		brne 1b
 3774 0fc0 0F71      		andi r16,31
 3775 0fc2 1127      		clr r17
 3776 0fc4 2227      		clr r18
 3777 0fc6 3327      		clr r19
 3778 0fc8 000F      		lsl r16
 3779 0fca 111F      		rol r17
 3780 0fcc 000F      		lsl r16
 3781 0fce 111F      		rol r17
 3782 0fd0 E989      		ldd r30,Y+17
 3783 0fd2 FA89      		ldd r31,Y+18
 3784 0fd4 E00F      		add r30,r16
 3785 0fd6 F11F      		adc r31,r17
 3786 0fd8 0081      		ld r16,Z
 3787 0fda 1181      		ldd r17,Z+1
 3788 0fdc 2281      		ldd r18,Z+2
 3789 0fde 3381      		ldd r19,Z+3
 3790 0fe0 8F71      		andi r24,31
 3791 0fe2 9927      		clr r25
 3792 0fe4 AA27      		clr r26
 3793 0fe6 BB27      		clr r27
 3794 0fe8 880F      		lsl r24
 3795 0fea 991F      		rol r25
 3796 0fec 880F      		lsl r24
 3797 0fee 991F      		rol r25
 3798 0ff0 E989      		ldd r30,Y+17
 3799 0ff2 FA89      		ldd r31,Y+18
 3800 0ff4 E80F      		add r30,r24
 3801 0ff6 F91F      		adc r31,r25
 3802 0ff8 8081      		ld r24,Z
 3803 0ffa 9181      		ldd r25,Z+1
 3804 0ffc A281      		ldd r26,Z+2
 3805 0ffe B381      		ldd r27,Z+3
 3806 1000 8D80      		ldd r8,Y+5
 3807 1002 9E80      		ldd r9,Y+6
 3808 1004 AF80      		ldd r10,Y+7
 3809 1006 B884      		ldd r11,Y+8
 3810 1008 E4E0      		ldi r30,4
 3811 100a 8E1A      		sub r8,r30
 3812 100c 9108      		sbc r9,__zero_reg__
 3813 100e A108      		sbc r10,__zero_reg__
 3814 1010 B108      		sbc r11,__zero_reg__
 3815 1012 840E      		add r8,r20
 3816 1014 951E      		adc r9,r21
 3817 1016 A61E      		adc r10,r22
 3818 1018 B71E      		adc r11,r23
 3819 101a FCE0      		ldi r31,12
 3820               		1:
 3821 101c F694      		lsr r15
 3822 101e E794      		ror r14
 3823 1020 D794      		ror r13
 3824 1022 C794      		ror r12
 3825 1024 FA95      		dec r31
 3826 1026 01F4      		brne 1b
 3827 1028 F7E0      		ldi r31,7
 3828 102a CF22      		and r12,r31
 3829 102c DD24      		clr r13
 3830 102e EE24      		clr r14
 3831 1030 FF24      		clr r15
 3832 1032 45E0      		ldi r20,5
 3833 1034 C416      		cp r12,r20
 3834 1036 D104      		cpc r13,__zero_reg__
 3835 1038 E104      		cpc r14,__zero_reg__
 3836 103a F104      		cpc r15,__zero_reg__
 3837 103c 01F4      		brne .+2
 3838 103e 00C0      		rjmp .L136
 3839 1040 00F0      		brlo .+2
 3840 1042 00C0      		rjmp .L542
 3841 1044 71E0      		ldi r23,1
 3842 1046 C716      		cp r12,r23
 3843 1048 D104      		cpc r13,__zero_reg__
 3844 104a E104      		cpc r14,__zero_reg__
 3845 104c F104      		cpc r15,__zero_reg__
 3846 104e 01F4      		brne .+2
 3847 1050 00C0      		rjmp .L140
 3848 1052 E4E0      		ldi r30,4
 3849 1054 CE16      		cp r12,r30
 3850 1056 D104      		cpc r13,__zero_reg__
 3851 1058 E104      		cpc r14,__zero_reg__
 3852 105a F104      		cpc r15,__zero_reg__
 3853 105c 01F4      		brne .+2
 3854 105e 00C0      		rjmp .L141
 3855 1060 CD28      		or r12,r13
 3856 1062 CE28      		or r12,r14
 3857 1064 CF28      		or r12,r15
 3858 1066 01F0      		breq .+2
 3859 1068 00C0      		rjmp .L142
 3860 106a 0817      		cp r16,r24
 3861 106c 1907      		cpc r17,r25
 3862 106e 2A07      		cpc r18,r26
 3863 1070 3B07      		cpc r19,r27
 3864 1072 01F0      		breq .+2
 3865 1074 00C0      		rjmp .L144
 3866 1076 00C0      		rjmp .L143
 3867               	.L297:
 3868 1078 D701      		movw r26,r14
 3869 107a C601      		movw r24,r12
 3870 107c 3BE0      		ldi r19,11
 3871               		1:
 3872 107e B695      		lsr r27
 3873 1080 A795      		ror r26
 3874 1082 9795      		ror r25
 3875 1084 8795      		ror r24
 3876 1086 3A95      		dec r19
 3877 1088 01F4      		brne 1b
 3878 108a 8827      		clr r24
 3879 108c 9927      		clr r25
 3880 108e A071      		andi r26,16
 3881 1090 BB27      		clr r27
 3882 1092 B701      		movw r22,r14
 3883 1094 A601      		movw r20,r12
 3884 1096 E4E1      		ldi r30,20
 3885               		1:
 3886 1098 7695      		lsr r23
 3887 109a 6795      		ror r22
 3888 109c 5795      		ror r21
 3889 109e 4795      		ror r20
 3890 10a0 EA95      		dec r30
 3891 10a2 01F4      		brne 1b
 3892 10a4 4E7F      		andi r20,254
 3893 10a6 5770      		andi r21,7
 3894 10a8 6627      		clr r22
 3895 10aa 7727      		clr r23
 3896 10ac 842B      		or r24,r20
 3897 10ae 952B      		or r25,r21
 3898 10b0 A62B      		or r26,r22
 3899 10b2 B72B      		or r27,r23
 3900 10b4 B701      		movw r22,r14
 3901 10b6 A601      		movw r20,r12
 3902 10b8 4427      		clr r20
 3903 10ba 507F      		andi r21,240
 3904 10bc 6F70      		andi r22,15
 3905 10be 7727      		clr r23
 3906 10c0 842B      		or r24,r20
 3907 10c2 952B      		or r25,r21
 3908 10c4 A62B      		or r26,r22
 3909 10c6 B72B      		or r27,r23
 3910 10c8 F9E0      		ldi r31,9
 3911               		1:
 3912 10ca F694      		lsr r15
 3913 10cc E794      		ror r14
 3914 10ce D794      		ror r13
 3915 10d0 C794      		ror r12
 3916 10d2 FA95      		dec r31
 3917 10d4 01F4      		brne 1b
 3918 10d6 CC24      		clr r12
 3919 10d8 18E0      		ldi r17,8
 3920 10da D122      		and r13,r17
 3921 10dc EE24      		clr r14
 3922 10de FF24      		clr r15
 3923 10e0 C82A      		or r12,r24
 3924 10e2 D92A      		or r13,r25
 3925 10e4 EA2A      		or r14,r26
 3926 10e6 FB2A      		or r15,r27
 3927 10e8 A4FF      		sbrs r26,4
 3928 10ea 00C0      		rjmp .L133
 3929 10ec 20EE      		ldi r18,224
 3930 10ee E22A      		or r14,r18
 3931 10f0 FF24      		clr r15
 3932 10f2 FA94      		dec r15
 3933               	.L133:
 3934 10f4 4D81      		ldd r20,Y+5
 3935 10f6 5E81      		ldd r21,Y+6
 3936 10f8 6F81      		ldd r22,Y+7
 3937 10fa 7885      		ldd r23,Y+8
 3938 10fc 4C5F      		subi r20,-4
 3939 10fe 5F4F      		sbci r21,-1
 3940 1100 6F4F      		sbci r22,-1
 3941 1102 7F4F      		sbci r23,-1
 3942 1104 4D8B      		std Y+21,r20
 3943 1106 5E8B      		std Y+22,r21
 3944 1108 6F8B      		std Y+23,r22
 3945 110a 788F      		std Y+24,r23
 3946 110c 8D80      		ldd r8,Y+5
 3947 110e 9E80      		ldd r9,Y+6
 3948 1110 AF80      		ldd r10,Y+7
 3949 1112 B884      		ldd r11,Y+8
 3950 1114 54E0      		ldi r21,4
 3951 1116 851A      		sub r8,r21
 3952 1118 9108      		sbc r9,__zero_reg__
 3953 111a A108      		sbc r10,__zero_reg__
 3954 111c B108      		sbc r11,__zero_reg__
 3955 111e 8C0C      		add r8,r12
 3956 1120 9D1C      		adc r9,r13
 3957 1122 AE1C      		adc r10,r14
 3958 1124 BF1C      		adc r11,r15
 3959 1126 C501      		movw r24,r10
 3960 1128 B401      		movw r22,r8
 3961 112a 6C5F      		subi r22,-4
 3962 112c 7F4F      		sbci r23,-1
 3963 112e 8F4F      		sbci r24,-1
 3964 1130 9F4F      		sbci r25,-1
 3965 1132 6D83      		std Y+5,r22
 3966 1134 7E83      		std Y+6,r23
 3967 1136 8F83      		std Y+7,r24
 3968 1138 9887      		std Y+8,r25
 3969 113a 00C0      		rjmp .L291
 3970               	.L198:
 3971 113c 4D8D      		ldd r20,Y+29
 3972 113e 5E8D      		ldd r21,Y+30
 3973 1140 6F8D      		ldd r22,Y+31
 3974 1142 78A1      		ldd r23,Y+32
 3975 1144 452B      		or r20,r21
 3976 1146 462B      		or r20,r22
 3977 1148 472B      		or r20,r23
 3978 114a 01F0      		breq .+2
 3979 114c 00C0      		rjmp .L323
 3980 114e 55E0      		ldi r21,5
 3981 1150 8516      		cp r8,r21
 3982 1152 51E0      		ldi r21,1
 3983 1154 9506      		cpc r9,r21
 3984 1156 A104      		cpc r10,__zero_reg__
 3985 1158 B104      		cpc r11,__zero_reg__
 3986 115a 01F4      		brne .+4
 3987 115c 0C94 0000 		jmp .L543
 3988 1160 F2E0      		ldi r31,lo8(2)
 3989 1162 8F16      		cp r8,r31
 3990 1164 01F4      		brne .+2
 3991 1166 00C0      		rjmp .L544
 3992 1168 8114      		cp r8,__zero_reg__
 3993 116a 9104      		cpc r9,__zero_reg__
 3994 116c A104      		cpc r10,__zero_reg__
 3995 116e B104      		cpc r11,__zero_reg__
 3996 1170 01F4      		brne .+2
 3997 1172 00C0      		rjmp .L257
 3998 1174 8A94      		dec r8
 3999 1176 8928      		or r8,r9
 4000 1178 8A28      		or r8,r10
 4001 117a 8B28      		or r8,r11
 4002 117c 01F0      		breq .+2
 4003 117e 00C0      		rjmp .L311
 4004 1180 44E0      		ldi r20,lo8(4)
 4005 1182 50E0      		ldi r21,0
 4006 1184 60E0      		ldi r22,0
 4007 1186 70E0      		ldi r23,0
 4008 1188 00C0      		rjmp .L295
 4009               	.L172:
 4010 118a 0197      		sbiw r24,1
 4011 118c A109      		sbc r26,__zero_reg__
 4012 118e B109      		sbc r27,__zero_reg__
 4013 1190 8630      		cpi r24,6
 4014 1192 9105      		cpc r25,__zero_reg__
 4015 1194 A105      		cpc r26,__zero_reg__
 4016 1196 B105      		cpc r27,__zero_reg__
 4017 1198 01F0      		breq .+2
 4018 119a 00F4      		brsh .+2
 4019 119c 00C0      		rjmp .L511
 4020               	.L194:
 4021 119e 6D89      		ldd r22,Y+21
 4022 11a0 7E89      		ldd r23,Y+22
 4023 11a2 8F89      		ldd r24,Y+23
 4024 11a4 988D      		ldd r25,Y+24
 4025 11a6 680D      		add r22,r8
 4026 11a8 791D      		adc r23,r9
 4027 11aa 8A1D      		adc r24,r10
 4028 11ac 9B1D      		adc r25,r11
 4029 11ae 6D8B      		std Y+21,r22
 4030 11b0 7E8B      		std Y+22,r23
 4031 11b2 8F8B      		std Y+23,r24
 4032 11b4 988F      		std Y+24,r25
 4033 11b6 8D80      		ldd r8,Y+5
 4034 11b8 9E80      		ldd r9,Y+6
 4035 11ba AF80      		ldd r10,Y+7
 4036 11bc B884      		ldd r11,Y+8
 4037 11be 8D8D      		ldd r24,Y+29
 4038 11c0 9E8D      		ldd r25,Y+30
 4039 11c2 AF8D      		ldd r26,Y+31
 4040 11c4 B8A1      		ldd r27,Y+32
 4041 11c6 8D83      		std Y+5,r24
 4042 11c8 9E83      		std Y+6,r25
 4043 11ca AF83      		std Y+7,r26
 4044 11cc B887      		std Y+8,r27
 4045 11ce 00C0      		rjmp .L291
 4046               	.L147:
 4047 11d0 4CE0      		ldi r20,12
 4048               		1:
 4049 11d2 F694      		lsr r15
 4050 11d4 E794      		ror r14
 4051 11d6 D794      		ror r13
 4052 11d8 C794      		ror r12
 4053 11da 4A95      		dec r20
 4054 11dc 01F4      		brne 1b
 4055 11de 07E0      		ldi r16,7
 4056 11e0 C022      		and r12,r16
 4057 11e2 DD24      		clr r13
 4058 11e4 EE24      		clr r14
 4059 11e6 FF24      		clr r15
 4060 11e8 12E0      		ldi r17,2
 4061 11ea C116      		cp r12,r17
 4062 11ec D104      		cpc r13,__zero_reg__
 4063 11ee E104      		cpc r14,__zero_reg__
 4064 11f0 F104      		cpc r15,__zero_reg__
 4065 11f2 01F4      		brne .+2
 4066 11f4 00C0      		rjmp .L152
 4067 11f6 00F0      		brlo .+2
 4068 11f8 00C0      		rjmp .L153
 4069 11fa CD28      		or r12,r13
 4070 11fc CE28      		or r12,r14
 4071 11fe CF28      		or r12,r15
 4072 1200 01F4      		brne .+2
 4073 1202 00C0      		rjmp .L545
 4074 1204 C501      		movw r24,r10
 4075 1206 B401      		movw r22,r8
 4076 1208 0E94 0000 		call load2
 4077               	.L520:
 4078 120c 882E      		mov r8,r24
 4079 120e 880F      		lsl r24
 4080 1210 9908      		sbc r9,r9
 4081 1212 AA08      		sbc r10,r10
 4082 1214 BB08      		sbc r11,r11
 4083 1216 00C0      		rjmp .L518
 4084               	.L162:
 4085 1218 BCE0      		ldi r27,12
 4086               		1:
 4087 121a F694      		lsr r15
 4088 121c E794      		ror r14
 4089 121e D794      		ror r13
 4090 1220 C794      		ror r12
 4091 1222 BA95      		dec r27
 4092 1224 01F4      		brne 1b
 4093 1226 E7E0      		ldi r30,7
 4094 1228 CE22      		and r12,r30
 4095 122a DD24      		clr r13
 4096 122c EE24      		clr r14
 4097 122e FF24      		clr r15
 4098 1230 F1E0      		ldi r31,1
 4099 1232 CF16      		cp r12,r31
 4100 1234 D104      		cpc r13,__zero_reg__
 4101 1236 E104      		cpc r14,__zero_reg__
 4102 1238 F104      		cpc r15,__zero_reg__
 4103 123a 01F4      		brne .+2
 4104 123c 00C0      		rjmp .L167
 4105 123e 02E0      		ldi r16,2
 4106 1240 C016      		cp r12,r16
 4107 1242 D104      		cpc r13,__zero_reg__
 4108 1244 E104      		cpc r14,__zero_reg__
 4109 1246 F104      		cpc r15,__zero_reg__
 4110 1248 01F4      		brne .+2
 4111 124a 00C0      		rjmp .L168
 4112 124c CD28      		or r12,r13
 4113 124e CE28      		or r12,r14
 4114 1250 CF28      		or r12,r15
 4115 1252 01F4      		brne .+2
 4116 1254 00C0      		rjmp .L546
 4117               	.L311:
 4118 1256 00E0      		ldi r16,0
 4119 1258 10E0      		ldi r17,0
 4120 125a 9801      		movw r18,r16
 4121 125c 83E0      		ldi r24,lo8(3)
 4122 125e 90E0      		ldi r25,0
 4123 1260 A0E0      		ldi r26,0
 4124 1262 B0E0      		ldi r27,0
 4125 1264 00C0      		rjmp .L148
 4126               	.L121:
 4127 1266 E989      		ldd r30,Y+17
 4128 1268 FA89      		ldd r31,Y+18
 4129 126a EC57      		subi r30,124
 4130 126c FF4F      		sbci r31,-1
 4131 126e 8081      		ld r24,Z
 4132 1270 83FF      		sbrs r24,3
 4133 1272 00C0      		rjmp .L510
 4134 1274 47E0      		ldi r20,lo8(7)
 4135 1276 50E0      		ldi r21,0
 4136 1278 60E0      		ldi r22,0
 4137 127a 70E8      		ldi r23,lo8(-128)
 4138 127c 00E0      		ldi r16,0
 4139 127e 10E0      		ldi r17,0
 4140 1280 9801      		movw r18,r16
 4141 1282 00C0      		rjmp .L126
 4142               	.L173:
 4143 1284 8630      		cpi r24,6
 4144 1286 9105      		cpc r25,__zero_reg__
 4145 1288 A105      		cpc r26,__zero_reg__
 4146 128a B105      		cpc r27,__zero_reg__
 4147 128c 01F0      		breq .+4
 4148 128e 00F0      		brlo .+2
 4149 1290 00C0      		rjmp .L185
 4150               	.L511:
 4151 1292 FC01      		movw r30,r24
 4152 1294 8827      		clr r24
 4153 1296 E050      		subi r30,pm_lo8(-(.L292))
 4154 1298 F040      		sbci r31,pm_hi8(-(.L292))
 4155 129a 8040      		sbci r24,pm_hh8(-(.L292))
 4156 129c 0C94 0000 		jmp __tablejump2__
 4157               		.section	.jumptables.gcc.main,"a",@progbits
 4158               		.p2align	1
 4159               	.L292:
 4160 006a 0000      		.word gs(.L193)
 4161 006c 0000      		.word gs(.L192)
 4162 006e 0000      		.word gs(.L191)
 4163 0070 0000      		.word gs(.L190)
 4164 0072 0000      		.word gs(.L189)
 4165 0074 0000      		.word gs(.L188)
 4166 0076 0000      		.word gs(.L186)
 4167               		.section	.text.startup
 4168               	.L323:
 4169 12a0 83E0      		ldi r24,lo8(3)
 4170 12a2 90E0      		ldi r25,0
 4171 12a4 A0E0      		ldi r26,0
 4172 12a6 B0E0      		ldi r27,0
 4173 12a8 00C0      		rjmp .L148
 4174               	.L310:
 4175 12aa 88E0      		ldi r24,lo8(8)
 4176 12ac 90E0      		ldi r25,0
 4177 12ae A0E0      		ldi r26,0
 4178 12b0 B0E0      		ldi r27,0
 4179 12b2 00C0      		rjmp .L148
 4180               	.L307:
 4181 12b4 86E0      		ldi r24,lo8(6)
 4182 12b6 90E0      		ldi r25,0
 4183 12b8 A0E0      		ldi r26,0
 4184 12ba B0E0      		ldi r27,0
 4185 12bc 00C0      		rjmp .L148
 4186               	.L539:
 4187 12be D701      		movw r26,r14
 4188 12c0 C601      		movw r24,r12
 4189 12c2 44E1      		ldi r20,20
 4190               		1:
 4191 12c4 B695      		lsr r27
 4192 12c6 A795      		ror r26
 4193 12c8 9795      		ror r25
 4194 12ca 8795      		ror r24
 4195 12cc 4A95      		dec r20
 4196 12ce 01F4      		brne 1b
 4197 12d0 8F71      		andi r24,31
 4198 12d2 9927      		clr r25
 4199 12d4 AA27      		clr r26
 4200 12d6 BB27      		clr r27
 4201 12d8 880F      		lsl r24
 4202 12da 991F      		rol r25
 4203 12dc 880F      		lsl r24
 4204 12de 991F      		rol r25
 4205 12e0 E989      		ldd r30,Y+17
 4206 12e2 FA89      		ldd r31,Y+18
 4207 12e4 E80F      		add r30,r24
 4208 12e6 F91F      		adc r31,r25
 4209 12e8 0081      		ld r16,Z
 4210 12ea 1181      		ldd r17,Z+1
 4211 12ec 2281      		ldd r18,Z+2
 4212 12ee 3381      		ldd r19,Z+3
 4213 12f0 0D8F      		std Y+29,r16
 4214 12f2 1E8F      		std Y+30,r17
 4215 12f4 2F8F      		std Y+31,r18
 4216 12f6 38A3      		std Y+32,r19
 4217 12f8 C501      		movw r24,r10
 4218 12fa B401      		movw r22,r8
 4219 12fc 0E94 0000 		call load4
 4220 1300 6D8B      		std Y+21,r22
 4221 1302 7E8B      		std Y+22,r23
 4222 1304 8F8B      		std Y+23,r24
 4223 1306 988F      		std Y+24,r25
 4224 1308 D701      		movw r26,r14
 4225 130a C601      		movw r24,r12
 4226 130c 6BE1      		ldi r22,27
 4227               		1:
 4228 130e B695      		lsr r27
 4229 1310 A795      		ror r26
 4230 1312 9795      		ror r25
 4231 1314 8795      		ror r24
 4232 1316 6A95      		dec r22
 4233 1318 01F4      		brne 1b
 4234 131a C114      		cp r12,__zero_reg__
 4235 131c D104      		cpc r13,__zero_reg__
 4236 131e E104      		cpc r14,__zero_reg__
 4237 1320 18EE      		ldi r17,-24
 4238 1322 F106      		cpc r15,r17
 4239 1324 00F4      		brsh .+2
 4240 1326 00C0      		rjmp .L547
 4241               	.L142:
 4242 1328 43E0      		ldi r20,lo8(3)
 4243 132a 50E0      		ldi r21,0
 4244 132c 60E0      		ldi r22,0
 4245 132e 70E0      		ldi r23,0
 4246 1330 00C0      		rjmp .L295
 4247               	.L542:
 4248 1332 66E0      		ldi r22,6
 4249 1334 C616      		cp r12,r22
 4250 1336 D104      		cpc r13,__zero_reg__
 4251 1338 E104      		cpc r14,__zero_reg__
 4252 133a F104      		cpc r15,__zero_reg__
 4253 133c 01F4      		brne .+2
 4254 133e 00C0      		rjmp .L548
 4255 1340 0817      		cp r16,r24
 4256 1342 1907      		cpc r17,r25
 4257 1344 2A07      		cpc r18,r26
 4258 1346 3B07      		cpc r19,r27
 4259 1348 00F0      		brlo .+2
 4260 134a 00C0      		rjmp .L143
 4261 134c 00C0      		rjmp .L144
 4262               	.L530:
 4263 134e E989      		ldd r30,Y+17
 4264 1350 FA89      		ldd r31,Y+18
 4265 1352 E058      		subi r30,-128
 4266 1354 FF4F      		sbci r31,-1
 4267 1356 FCA7      		std Y+44,r31
 4268 1358 EBA7      		std Y+43,r30
 4269 135a 8080      		ld r8,Z
 4270 135c 9180      		ldd r9,Z+1
 4271 135e A280      		ldd r10,Z+2
 4272 1360 B380      		ldd r11,Z+3
 4273 1362 8D82      		std Y+5,r8
 4274 1364 9E82      		std Y+6,r9
 4275 1366 AF82      		std Y+7,r10
 4276 1368 B886      		std Y+8,r11
 4277 136a AB89      		ldd r26,Y+19
 4278 136c BC89      		ldd r27,Y+20
 4279 136e 8D90      		ld r8,X+
 4280 1370 9D90      		ld r9,X+
 4281 1372 AD90      		ld r10,X+
 4282 1374 BC90      		ld r11,X
 4283 1376 898E      		std Y+25,r8
 4284 1378 9A8E      		std Y+26,r9
 4285 137a AB8E      		std Y+27,r10
 4286 137c BC8E      		std Y+28,r11
 4287 137e 00C0      		rjmp .L510
 4288               	.L305:
 4289 1380 42E0      		ldi r20,lo8(2)
 4290 1382 50E0      		ldi r21,0
 4291 1384 60E0      		ldi r22,0
 4292 1386 70E0      		ldi r23,0
 4293 1388 00C0      		rjmp .L295
 4294               	.L153:
 4295 138a 34E0      		ldi r19,4
 4296 138c C316      		cp r12,r19
 4297 138e D104      		cpc r13,__zero_reg__
 4298 1390 E104      		cpc r14,__zero_reg__
 4299 1392 F104      		cpc r15,__zero_reg__
 4300 1394 01F4      		brne .+2
 4301 1396 00C0      		rjmp .L156
 4302 1398 45E0      		ldi r20,5
 4303 139a C416      		cp r12,r20
 4304 139c D104      		cpc r13,__zero_reg__
 4305 139e E104      		cpc r14,__zero_reg__
 4306 13a0 F104      		cpc r15,__zero_reg__
 4307 13a2 01F4      		brne .L142
 4308 13a4 C501      		movw r24,r10
 4309 13a6 B401      		movw r22,r8
 4310 13a8 0E94 0000 		call load2
 4311 13ac 4C01      		movw r8,r24
 4312 13ae A12C      		mov r10,__zero_reg__
 4313 13b0 B12C      		mov r11,__zero_reg__
 4314 13b2 00C0      		rjmp .L518
 4315               	.L540:
 4316 13b4 FC01      		movw r30,r24
 4317 13b6 8827      		clr r24
 4318 13b8 E050      		subi r30,pm_lo8(-(.L202))
 4319 13ba F040      		sbci r31,pm_hi8(-(.L202))
 4320 13bc 8040      		sbci r24,pm_hh8(-(.L202))
 4321 13be 0C94 0000 		jmp __tablejump2__
 4322               		.section	.jumptables.gcc.main,"a",@progbits
 4323               		.p2align	1
 4324               	.L202:
 4325 0078 0000      		.word gs(.L210)
 4326 007a 0000      		.word gs(.L318)
 4327 007c 0000      		.word gs(.L200)
 4328 007e 0000      		.word gs(.L200)
 4329 0080 0000      		.word gs(.L208)
 4330 0082 0000      		.word gs(.L207)
 4331 0084 0000      		.word gs(.L200)
 4332 0086 0000      		.word gs(.L200)
 4333 0088 0000      		.word gs(.L200)
 4334 008a 0000      		.word gs(.L200)
 4335 008c 0000      		.word gs(.L200)
 4336 008e 0000      		.word gs(.L200)
 4337 0090 0000      		.word gs(.L200)
 4338 0092 0000      		.word gs(.L200)
 4339 0094 0000      		.word gs(.L200)
 4340 0096 0000      		.word gs(.L200)
 4341 0098 0000      		.word gs(.L200)
 4342 009a 0000      		.word gs(.L200)
 4343 009c 0000      		.word gs(.L200)
 4344 009e 0000      		.word gs(.L200)
 4345 00a0 0000      		.word gs(.L200)
 4346 00a2 0000      		.word gs(.L200)
 4347 00a4 0000      		.word gs(.L200)
 4348 00a6 0000      		.word gs(.L200)
 4349 00a8 0000      		.word gs(.L200)
 4350 00aa 0000      		.word gs(.L200)
 4351 00ac 0000      		.word gs(.L200)
 4352 00ae 0000      		.word gs(.L200)
 4353 00b0 0000      		.word gs(.L200)
 4354 00b2 0000      		.word gs(.L200)
 4355 00b4 0000      		.word gs(.L200)
 4356 00b6 0000      		.word gs(.L200)
 4357 00b8 0000      		.word gs(.L200)
 4358 00ba 0000      		.word gs(.L200)
 4359 00bc 0000      		.word gs(.L200)
 4360 00be 0000      		.word gs(.L200)
 4361 00c0 0000      		.word gs(.L200)
 4362 00c2 0000      		.word gs(.L200)
 4363 00c4 0000      		.word gs(.L200)
 4364 00c6 0000      		.word gs(.L200)
 4365 00c8 0000      		.word gs(.L200)
 4366 00ca 0000      		.word gs(.L200)
 4367 00cc 0000      		.word gs(.L200)
 4368 00ce 0000      		.word gs(.L200)
 4369 00d0 0000      		.word gs(.L200)
 4370 00d2 0000      		.word gs(.L200)
 4371 00d4 0000      		.word gs(.L200)
 4372 00d6 0000      		.word gs(.L200)
 4373 00d8 0000      		.word gs(.L200)
 4374 00da 0000      		.word gs(.L200)
 4375 00dc 0000      		.word gs(.L200)
 4376 00de 0000      		.word gs(.L200)
 4377 00e0 0000      		.word gs(.L200)
 4378 00e2 0000      		.word gs(.L200)
 4379 00e4 0000      		.word gs(.L200)
 4380 00e6 0000      		.word gs(.L200)
 4381 00e8 0000      		.word gs(.L200)
 4382 00ea 0000      		.word gs(.L200)
 4383 00ec 0000      		.word gs(.L200)
 4384 00ee 0000      		.word gs(.L200)
 4385 00f0 0000      		.word gs(.L200)
 4386 00f2 0000      		.word gs(.L200)
 4387 00f4 0000      		.word gs(.L200)
 4388 00f6 0000      		.word gs(.L200)
 4389 00f8 0000      		.word gs(.L206)
 4390 00fa 0000      		.word gs(.L205)
 4391 00fc 0000      		.word gs(.L204)
 4392 00fe 0000      		.word gs(.L203)
 4393 0100 0000      		.word gs(.L201)
 4394               		.section	.text.startup
 4395               	.L547:
 4396 13c2 FC01      		movw r30,r24
 4397 13c4 8827      		clr r24
 4398 13c6 E050      		subi r30,pm_lo8(-(.L260))
 4399 13c8 F040      		sbci r31,pm_hi8(-(.L260))
 4400 13ca 8040      		sbci r24,pm_hh8(-(.L260))
 4401 13cc 0C94 0000 		jmp __tablejump2__
 4402               		.section	.jumptables.gcc.main,"a",@progbits
 4403               		.p2align	1
 4404               	.L260:
 4405 0102 0000      		.word gs(.L270)
 4406 0104 0000      		.word gs(.L269)
 4407 0106 0000      		.word gs(.L268)
 4408 0108 0000      		.word gs(.L267)
 4409 010a 0000      		.word gs(.L266)
 4410 010c 0000      		.word gs(.L142)
 4411 010e 0000      		.word gs(.L142)
 4412 0110 0000      		.word gs(.L142)
 4413 0112 0000      		.word gs(.L265)
 4414 0114 0000      		.word gs(.L142)
 4415 0116 0000      		.word gs(.L142)
 4416 0118 0000      		.word gs(.L142)
 4417 011a 0000      		.word gs(.L264)
 4418 011c 0000      		.word gs(.L142)
 4419 011e 0000      		.word gs(.L142)
 4420 0120 0000      		.word gs(.L142)
 4421 0122 0000      		.word gs(.L263)
 4422 0124 0000      		.word gs(.L142)
 4423 0126 0000      		.word gs(.L142)
 4424 0128 0000      		.word gs(.L142)
 4425 012a 0000      		.word gs(.L262)
 4426 012c 0000      		.word gs(.L142)
 4427 012e 0000      		.word gs(.L142)
 4428 0130 0000      		.word gs(.L142)
 4429 0132 0000      		.word gs(.L261)
 4430 0134 0000      		.word gs(.L142)
 4431 0136 0000      		.word gs(.L142)
 4432 0138 0000      		.word gs(.L142)
 4433 013a 0000      		.word gs(.L259)
 4434               		.section	.text.startup
 4435               	.L140:
 4436 13d0 0817      		cp r16,r24
 4437 13d2 1907      		cpc r17,r25
 4438 13d4 2A07      		cpc r18,r26
 4439 13d6 3B07      		cpc r19,r27
 4440 13d8 01F0      		breq .+2
 4441 13da 00C0      		rjmp .L143
 4442 13dc 00C0      		rjmp .L144
 4443               	.L527:
 4444 13de 80E0      		ldi r24,lo8(__heap_start)
 4445 13e0 90E0      		ldi r25,hi8(__heap_start)
 4446 13e2 0C94 0000 		jmp .L111
 4447               	.L533:
 4448 13e6 FC01      		movw r30,r24
 4449 13e8 8827      		clr r24
 4450 13ea E050      		subi r30,pm_lo8(-(.L176))
 4451 13ec F040      		sbci r31,pm_hi8(-(.L176))
 4452 13ee 8040      		sbci r24,pm_hh8(-(.L176))
 4453 13f0 0C94 0000 		jmp __tablejump2__
 4454               		.section	.jumptables.gcc.main,"a",@progbits
 4455               		.p2align	1
 4456               	.L176:
 4457 013c 0000      		.word gs(.L182)
 4458 013e 0000      		.word gs(.L181)
 4459 0140 0000      		.word gs(.L180)
 4460 0142 0000      		.word gs(.L179)
 4461 0144 0000      		.word gs(.L178)
 4462 0146 0000      		.word gs(.L177)
 4463 0148 0000      		.word gs(.L175)
 4464               		.section	.text.startup
 4465               	.L167:
 4466 13f4 8401      		movw r16,r8
 4467 13f6 1170      		andi r17,1
 4468 13f8 40E0      		ldi r20,0
 4469 13fa C501      		movw r24,r10
 4470 13fc B401      		movw r22,r8
 4471 13fe 0E94 0000 		call read_buf
 4472 1402 282F      		mov r18,r24
 4473 1404 0F3F      		cpi r16,-1
 4474 1406 31E0      		ldi r19,1
 4475 1408 1307      		cpc r17,r19
 4476 140a 01F4      		brne .+2
 4477 140c 00C0      		rjmp .L549
 4478 140e 47E0      		ldi r20,lo8(7)
 4479 1410 52E0      		ldi r21,lo8(2)
 4480 1412 249F      		mul r18,r20
 4481 1414 C001      		movw r24,r0
 4482 1416 259F      		mul r18,r21
 4483 1418 900D      		add r25,r0
 4484 141a 1124      		clr __zero_reg__
 4485 141c 8050      		subi r24,lo8(-(pool))
 4486 141e 9040      		sbci r25,hi8(-(pool))
 4487 1420 FC01      		movw r30,r24
 4488 1422 E00F      		add r30,r16
 4489 1424 F11F      		adc r31,r17
 4490 1426 1D89      		ldd r17,Y+21
 4491 1428 1083      		st Z,r17
 4492 142a 8D8C      		ldd r8,Y+29
 4493 142c 8182      		std Z+1,r8
 4494               	.L525:
 4495 142e FC01      		movw r30,r24
 4496 1430 EA5F      		subi r30,-6
 4497 1432 FD4F      		sbci r31,-3
 4498 1434 21E0      		ldi r18,lo8(1)
 4499 1436 2083      		st Z,r18
 4500 1438 3297      		sbiw r30,2
 4501 143a 8081      		ld r24,Z
 4502 143c 9181      		ldd r25,Z+1
 4503 143e 8F3F      		cpi r24,-1
 4504 1440 9807      		cpc r25,r24
 4505 1442 01F4      		brne .+2
 4506 1444 00C0      		rjmp .L144
 4507               	.L523:
 4508 1446 0196      		adiw r24,1
 4509 1448 9183      		std Z+1,r25
 4510 144a 8083      		st Z,r24
 4511 144c 00C0      		rjmp .L144
 4512               	.L546:
 4513 144e 40E0      		ldi r20,0
 4514 1450 C501      		movw r24,r10
 4515 1452 B401      		movw r22,r8
 4516 1454 0E94 0000 		call read_buf
 4517 1458 11E0      		ldi r17,1
 4518 145a 9122      		and r9,r17
 4519 145c AA24      		clr r10
 4520 145e BB24      		clr r11
 4521 1460 47E0      		ldi r20,lo8(7)
 4522 1462 52E0      		ldi r21,lo8(2)
 4523 1464 849F      		mul r24,r20
 4524 1466 9001      		movw r18,r0
 4525 1468 859F      		mul r24,r21
 4526 146a 300D      		add r19,r0
 4527 146c 1124      		clr __zero_reg__
 4528 146e C901      		movw r24,r18
 4529 1470 8050      		subi r24,lo8(-(pool))
 4530 1472 9040      		sbci r25,hi8(-(pool))
 4531 1474 880E      		add r8,r24
 4532 1476 991E      		adc r9,r25
 4533 1478 AD88      		ldd r10,Y+21
 4534 147a D401      		movw r26,r8
 4535 147c AC92      		st X,r10
 4536 147e 00C0      		rjmp .L525
 4537               	.L199:
 4538 1480 8114      		cp r8,__zero_reg__
 4539 1482 9CE0      		ldi r25,12
 4540 1484 9906      		cpc r9,r25
 4541 1486 A104      		cpc r10,__zero_reg__
 4542 1488 B104      		cpc r11,__zero_reg__
 4543 148a 01F4      		brne .+2
 4544 148c 00C0      		rjmp .L319
 4545 148e A1E1      		ldi r26,17
 4546 1490 8A16      		cp r8,r26
 4547 1492 AFE0      		ldi r26,15
 4548 1494 9A06      		cpc r9,r26
 4549 1496 A104      		cpc r10,__zero_reg__
 4550 1498 B104      		cpc r11,__zero_reg__
 4551 149a 01F0      		breq .+2
 4552 149c 00C0      		rjmp .L321
 4553 149e 8FEF      		ldi r24,lo8(-1)
 4554 14a0 90EF      		ldi r25,lo8(-16)
 4555 14a2 AFE0      		ldi r26,lo8(15)
 4556 14a4 BFEF      		ldi r27,lo8(-1)
 4557 14a6 8D8B      		std Y+21,r24
 4558 14a8 9E8B      		std Y+22,r25
 4559 14aa AF8B      		std Y+23,r26
 4560 14ac B88F      		std Y+24,r27
 4561               	.L209:
 4562 14ae 2D8D      		ldd r18,Y+29
 4563 14b0 3E8D      		ldd r19,Y+30
 4564 14b2 4F8D      		ldd r20,Y+31
 4565 14b4 58A1      		ldd r21,Y+32
 4566 14b6 2530      		cpi r18,5
 4567 14b8 3105      		cpc r19,__zero_reg__
 4568 14ba 4105      		cpc r20,__zero_reg__
 4569 14bc 5105      		cpc r21,__zero_reg__
 4570 14be 01F4      		brne .+2
 4571 14c0 00C0      		rjmp .L213
 4572 14c2 00F0      		brlo .+2
 4573 14c4 00C0      		rjmp .L293
 4574 14c6 2230      		cpi r18,2
 4575 14c8 3105      		cpc r19,__zero_reg__
 4576 14ca 4105      		cpc r20,__zero_reg__
 4577 14cc 5105      		cpc r21,__zero_reg__
 4578 14ce 01F4      		brne .+2
 4579 14d0 00C0      		rjmp .L215
 4580 14d2 2330      		cpi r18,3
 4581 14d4 3105      		cpc r19,__zero_reg__
 4582 14d6 4105      		cpc r20,__zero_reg__
 4583 14d8 5105      		cpc r21,__zero_reg__
 4584 14da 01F0      		breq .+2
 4585 14dc 00C0      		rjmp .L242
 4586               	.L216:
 4587 14de C094      		com r12
 4588 14e0 D094      		com r13
 4589 14e2 E094      		com r14
 4590 14e4 F094      		com r15
 4591 14e6 6D89      		ldd r22,Y+21
 4592 14e8 7E89      		ldd r23,Y+22
 4593 14ea 8F89      		ldd r24,Y+23
 4594 14ec 988D      		ldd r25,Y+24
 4595 14ee C622      		and r12,r22
 4596 14f0 D722      		and r13,r23
 4597 14f2 E822      		and r14,r24
 4598 14f4 F922      		and r15,r25
 4599               	.L236:
 4600 14f6 E989      		ldd r30,Y+17
 4601 14f8 FA89      		ldd r31,Y+18
 4602 14fa E056      		subi r30,96
 4603 14fc FF4F      		sbci r31,-1
 4604 14fe 70E4      		ldi r23,64
 4605 1500 8716      		cp r8,r23
 4606 1502 73E0      		ldi r23,3
 4607 1504 9706      		cpc r9,r23
 4608 1506 A104      		cpc r10,__zero_reg__
 4609 1508 B104      		cpc r11,__zero_reg__
 4610 150a 01F4      		brne .+2
 4611 150c 00C0      		rjmp .L227
 4612               	.L235:
 4613 150e 81E4      		ldi r24,65
 4614 1510 8816      		cp r8,r24
 4615 1512 83E0      		ldi r24,3
 4616 1514 9806      		cpc r9,r24
 4617 1516 A104      		cpc r10,__zero_reg__
 4618 1518 B104      		cpc r11,__zero_reg__
 4619 151a 00F4      		brsh .+2
 4620 151c 00C0      		rjmp .L550
 4621 151e E2E4      		ldi r30,66
 4622 1520 8E16      		cp r8,r30
 4623 1522 E3E0      		ldi r30,3
 4624 1524 9E06      		cpc r9,r30
 4625 1526 A104      		cpc r10,__zero_reg__
 4626 1528 B104      		cpc r11,__zero_reg__
 4627 152a 01F4      		brne .+2
 4628 152c 00C0      		rjmp .L551
 4629 152e 00F4      		brsh .+2
 4630 1530 00C0      		rjmp .L552
 4631 1532 03E4      		ldi r16,67
 4632 1534 8016      		cp r8,r16
 4633 1536 03E0      		ldi r16,3
 4634 1538 9006      		cpc r9,r16
 4635 153a A104      		cpc r10,__zero_reg__
 4636 153c B104      		cpc r11,__zero_reg__
 4637 153e 01F4      		brne .+2
 4638 1540 00C0      		rjmp .L553
 4639 1542 14E4      		ldi r17,68
 4640 1544 8116      		cp r8,r17
 4641 1546 13E0      		ldi r17,3
 4642 1548 9106      		cpc r9,r17
 4643 154a A104      		cpc r10,__zero_reg__
 4644 154c B104      		cpc r11,__zero_reg__
 4645 154e 01F0      		breq .+2
 4646 1550 00C0      		rjmp .L242
 4647               	.L225:
 4648 1552 ABA1      		ldd r26,Y+35
 4649 1554 BCA1      		ldd r27,Y+36
 4650 1556 CD92      		st X+,r12
 4651 1558 DD92      		st X+,r13
 4652 155a ED92      		st X+,r14
 4653 155c FC92      		st X,r15
 4654 155e 1397      		sbiw r26,3
 4655 1560 8D80      		ldd r8,Y+5
 4656 1562 9E80      		ldd r9,Y+6
 4657 1564 AF80      		ldd r10,Y+7
 4658 1566 B884      		ldd r11,Y+8
 4659 1568 9501      		movw r18,r10
 4660 156a 8401      		movw r16,r8
 4661 156c 0C5F      		subi r16,-4
 4662 156e 1F4F      		sbci r17,-1
 4663 1570 2F4F      		sbci r18,-1
 4664 1572 3F4F      		sbci r19,-1
 4665 1574 0D83      		std Y+5,r16
 4666 1576 1E83      		std Y+6,r17
 4667 1578 2F83      		std Y+7,r18
 4668 157a 3887      		std Y+8,r19
 4669 157c 00C0      		rjmp .L291
 4670               	.L534:
 4671 157e AFA1      		ldd r26,Y+39
 4672 1580 B8A5      		ldd r27,Y+40
 4673 1582 8D90      		ld r8,X+
 4674 1584 9D90      		ld r9,X+
 4675 1586 AD90      		ld r10,X+
 4676 1588 BC90      		ld r11,X
 4677 158a 8D8A      		std Y+21,r8
 4678 158c 9E8A      		std Y+22,r9
 4679 158e AF8A      		std Y+23,r10
 4680 1590 B88E      		std Y+24,r11
 4681 1592 8D80      		ldd r8,Y+5
 4682 1594 9E80      		ldd r9,Y+6
 4683 1596 AF80      		ldd r10,Y+7
 4684 1598 B884      		ldd r11,Y+8
 4685 159a CD82      		std Y+5,r12
 4686 159c DE82      		std Y+6,r13
 4687 159e EF82      		std Y+7,r14
 4688 15a0 F886      		std Y+8,r15
 4689 15a2 00C0      		rjmp .L291
 4690               	.L535:
 4691 15a4 8D88      		ldd r8,Y+21
 4692 15a6 A9A5      		ldd r26,Y+41
 4693 15a8 BAA5      		ldd r27,Y+42
 4694 15aa 8C92      		st X,r8
 4695 15ac 9D8C      		ldd r9,Y+29
 4696 15ae 1196      		adiw r26,1
 4697 15b0 9C92      		st X,r9
 4698 15b2 1197      		sbiw r26,1
 4699 15b4 1296      		adiw r26,2
 4700 15b6 4C93      		st X,r20
 4701 15b8 1297      		sbiw r26,2
 4702 15ba 1396      		adiw r26,3
 4703 15bc 5C93      		st X,r21
 4704 15be 00C0      		rjmp .L144
 4705               	.L544:
 4706 15c0 E989      		ldd r30,Y+17
 4707 15c2 FA89      		ldd r31,Y+18
 4708 15c4 EC57      		subi r30,124
 4709 15c6 FF4F      		sbci r31,-1
 4710 15c8 8080      		ld r8,Z
 4711 15ca 9180      		ldd r9,Z+1
 4712 15cc A280      		ldd r10,Z+2
 4713 15ce B380      		ldd r11,Z+3
 4714 15d0 A9A1      		ldd r26,Y+33
 4715 15d2 BAA1      		ldd r27,Y+34
 4716 15d4 4D91      		ld r20,X+
 4717 15d6 5D91      		ld r21,X+
 4718 15d8 6D91      		ld r22,X+
 4719 15da 7C91      		ld r23,X
 4720 15dc 9501      		movw r18,r10
 4721 15de 8401      		movw r16,r8
 4722 15e0 A4E0      		ldi r26,4
 4723               		1:
 4724 15e2 3695      		lsr r19
 4725 15e4 2795      		ror r18
 4726 15e6 1795      		ror r17
 4727 15e8 0795      		ror r16
 4728 15ea AA95      		dec r26
 4729 15ec 01F4      		brne 1b
 4730 15ee 0870      		andi r16,8
 4731 15f0 1127      		clr r17
 4732 15f2 2227      		clr r18
 4733 15f4 3327      		clr r19
 4734 15f6 6A01      		movw r12,r20
 4735 15f8 7B01      		movw r14,r22
 4736 15fa BBE0      		ldi r27,11
 4737               		1:
 4738 15fc CC0C      		lsl r12
 4739 15fe DD1C      		rol r13
 4740 1600 EE1C      		rol r14
 4741 1602 FF1C      		rol r15
 4742 1604 BA95      		dec r27
 4743 1606 01F4      		brne 1b
 4744 1608 CC24      		clr r12
 4745 160a B8E1      		ldi r27,24
 4746 160c DB22      		and r13,r27
 4747 160e EE24      		clr r14
 4748 1610 FF24      		clr r15
 4749 1612 0C29      		or r16,r12
 4750 1614 1D29      		or r17,r13
 4751 1616 2E29      		or r18,r14
 4752 1618 3F29      		or r19,r15
 4753 161a 0068      		ori r16,128
 4754 161c 0083      		st Z,r16
 4755 161e 1183      		std Z+1,r17
 4756 1620 2283      		std Z+2,r18
 4757 1622 3383      		std Z+3,r19
 4758 1624 D501      		movw r26,r10
 4759 1626 C401      		movw r24,r8
 4760 1628 1BE0      		ldi r17,11
 4761               		1:
 4762 162a B695      		lsr r27
 4763 162c A795      		ror r26
 4764 162e 9795      		ror r25
 4765 1630 8795      		ror r24
 4766 1632 1A95      		dec r17
 4767 1634 01F4      		brne 1b
 4768 1636 8370      		andi r24,3
 4769 1638 9927      		clr r25
 4770 163a AA27      		clr r26
 4771 163c BB27      		clr r27
 4772 163e 4C7F      		andi r20,252
 4773 1640 842B      		or r24,r20
 4774 1642 952B      		or r25,r21
 4775 1644 A62B      		or r26,r22
 4776 1646 B72B      		or r27,r23
 4777 1648 E9A1      		ldd r30,Y+33
 4778 164a FAA1      		ldd r31,Y+34
 4779 164c 8083      		st Z,r24
 4780 164e 9183      		std Z+1,r25
 4781 1650 A283      		std Z+2,r26
 4782 1652 B383      		std Z+3,r27
 4783 1654 E989      		ldd r30,Y+17
 4784 1656 FA89      		ldd r31,Y+18
 4785 1658 E055      		subi r30,80
 4786 165a FF4F      		sbci r31,-1
 4787 165c 8080      		ld r8,Z
 4788 165e 9180      		ldd r9,Z+1
 4789 1660 A280      		ldd r10,Z+2
 4790 1662 B380      		ldd r11,Z+3
 4791 1664 F4E0      		ldi r31,4
 4792 1666 8F1A      		sub r8,r31
 4793 1668 9108      		sbc r9,__zero_reg__
 4794 166a A108      		sbc r10,__zero_reg__
 4795 166c B108      		sbc r11,__zero_reg__
 4796 166e 00C0      		rjmp .L143
 4797               	.L545:
 4798 1670 40E0      		ldi r20,0
 4799 1672 C501      		movw r24,r10
 4800 1674 B401      		movw r22,r8
 4801 1676 0E94 0000 		call read_buf
 4802 167a 282F      		mov r18,r24
 4803 167c 30E0      		ldi r19,0
 4804 167e 47E0      		ldi r20,lo8(7)
 4805 1680 52E0      		ldi r21,lo8(2)
 4806 1682 849F      		mul r24,r20
 4807 1684 F001      		movw r30,r0
 4808 1686 859F      		mul r24,r21
 4809 1688 F00D      		add r31,r0
 4810 168a 1124      		clr __zero_reg__
 4811 168c E050      		subi r30,lo8(-(pool+516))
 4812 168e F040      		sbci r31,hi8(-(pool+516))
 4813 1690 8081      		ld r24,Z
 4814 1692 9181      		ldd r25,Z+1
 4815 1694 8E3F      		cpi r24,-2
 4816 1696 5FEF      		ldi r21,-1
 4817 1698 9507      		cpc r25,r21
 4818 169a 00F4      		brsh .L158
 4819 169c 0296      		adiw r24,2
 4820 169e 9183      		std Z+1,r25
 4821 16a0 8083      		st Z,r24
 4822               	.L158:
 4823 16a2 61E0      		ldi r22,1
 4824 16a4 9622      		and r9,r22
 4825 16a6 AA24      		clr r10
 4826 16a8 BB24      		clr r11
 4827 16aa 47E0      		ldi r20,lo8(7)
 4828 16ac 52E0      		ldi r21,lo8(2)
 4829 16ae 249F      		mul r18,r20
 4830 16b0 C001      		movw r24,r0
 4831 16b2 259F      		mul r18,r21
 4832 16b4 900D      		add r25,r0
 4833 16b6 349F      		mul r19,r20
 4834 16b8 900D      		add r25,r0
 4835 16ba 1124      		clr r1
 4836 16bc 8050      		subi r24,lo8(-(pool))
 4837 16be 9040      		sbci r25,hi8(-(pool))
 4838 16c0 880E      		add r8,r24
 4839 16c2 991E      		adc r9,r25
 4840 16c4 D401      		movw r26,r8
 4841 16c6 8C91      		ld r24,X
 4842 16c8 00C0      		rjmp .L520
 4843               	.L152:
 4844 16ca C501      		movw r24,r10
 4845 16cc B401      		movw r22,r8
 4846 16ce 0E94 0000 		call load4
 4847 16d2 6D8B      		std Y+21,r22
 4848 16d4 7E8B      		std Y+22,r23
 4849 16d6 8F8B      		std Y+23,r24
 4850 16d8 988F      		std Y+24,r25
 4851 16da 8D80      		ldd r8,Y+5
 4852 16dc 9E80      		ldd r9,Y+6
 4853 16de AF80      		ldd r10,Y+7
 4854 16e0 B884      		ldd r11,Y+8
 4855 16e2 A501      		movw r20,r10
 4856 16e4 9401      		movw r18,r8
 4857 16e6 2C5F      		subi r18,-4
 4858 16e8 3F4F      		sbci r19,-1
 4859 16ea 4F4F      		sbci r20,-1
 4860 16ec 5F4F      		sbci r21,-1
 4861 16ee 2D83      		std Y+5,r18
 4862 16f0 3E83      		std Y+6,r19
 4863 16f2 4F83      		std Y+7,r20
 4864 16f4 5887      		std Y+8,r21
 4865 16f6 00C0      		rjmp .L291
 4866               	.L156:
 4867 16f8 40E0      		ldi r20,0
 4868 16fa C501      		movw r24,r10
 4869 16fc B401      		movw r22,r8
 4870 16fe 0E94 0000 		call read_buf
 4871 1702 282F      		mov r18,r24
 4872 1704 30E0      		ldi r19,0
 4873 1706 47E0      		ldi r20,lo8(7)
 4874 1708 52E0      		ldi r21,lo8(2)
 4875 170a 849F      		mul r24,r20
 4876 170c F001      		movw r30,r0
 4877 170e 859F      		mul r24,r21
 4878 1710 F00D      		add r31,r0
 4879 1712 1124      		clr __zero_reg__
 4880 1714 E050      		subi r30,lo8(-(pool+516))
 4881 1716 F040      		sbci r31,hi8(-(pool+516))
 4882 1718 8081      		ld r24,Z
 4883 171a 9181      		ldd r25,Z+1
 4884 171c 8E3F      		cpi r24,-2
 4885 171e 4FEF      		ldi r20,-1
 4886 1720 9407      		cpc r25,r20
 4887 1722 00F4      		brsh .L159
 4888 1724 0296      		adiw r24,2
 4889 1726 9183      		std Z+1,r25
 4890 1728 8083      		st Z,r24
 4891               	.L159:
 4892 172a 51E0      		ldi r21,1
 4893 172c 9522      		and r9,r21
 4894 172e AA24      		clr r10
 4895 1730 BB24      		clr r11
 4896 1732 47E0      		ldi r20,lo8(7)
 4897 1734 52E0      		ldi r21,lo8(2)
 4898 1736 249F      		mul r18,r20
 4899 1738 C001      		movw r24,r0
 4900 173a 259F      		mul r18,r21
 4901 173c 900D      		add r25,r0
 4902 173e 349F      		mul r19,r20
 4903 1740 900D      		add r25,r0
 4904 1742 1124      		clr r1
 4905 1744 8050      		subi r24,lo8(-(pool))
 4906 1746 9040      		sbci r25,hi8(-(pool))
 4907 1748 880E      		add r8,r24
 4908 174a 991E      		adc r9,r25
 4909 174c D401      		movw r26,r8
 4910 174e 8C91      		ld r24,X
 4911 1750 882E      		mov r8,r24
 4912 1752 912C      		mov r9,__zero_reg__
 4913 1754 A12C      		mov r10,__zero_reg__
 4914 1756 B12C      		mov r11,__zero_reg__
 4915 1758 00C0      		rjmp .L518
 4916               	.L189:
 4917 175a 5FE1      		ldi r21,31
 4918 175c 8522      		and r8,r21
 4919 175e 9924      		clr r9
 4920 1760 F6FE      		sbrs r15,6
 4921 1762 00C0      		rjmp .L197
 4922 1764 6D89      		ldd r22,Y+21
 4923 1766 7E89      		ldd r23,Y+22
 4924 1768 8F89      		ldd r24,Y+23
 4925 176a 988D      		ldd r25,Y+24
 4926 176c 00C0      		rjmp 2f
 4927               		1:
 4928 176e 9595      		asr r25
 4929 1770 8795      		ror r24
 4930 1772 7795      		ror r23
 4931 1774 6795      		ror r22
 4932               		2:
 4933 1776 8A94      		dec r8
 4934 1778 02F4      		brpl 1b
 4935 177a 6D8B      		std Y+21,r22
 4936 177c 7E8B      		std Y+22,r23
 4937 177e 8F8B      		std Y+23,r24
 4938 1780 988F      		std Y+24,r25
 4939 1782 8D80      		ldd r8,Y+5
 4940 1784 9E80      		ldd r9,Y+6
 4941 1786 AF80      		ldd r10,Y+7
 4942 1788 B884      		ldd r11,Y+8
 4943 178a 8D8D      		ldd r24,Y+29
 4944 178c 9E8D      		ldd r25,Y+30
 4945 178e AF8D      		ldd r26,Y+31
 4946 1790 B8A1      		ldd r27,Y+32
 4947 1792 8D83      		std Y+5,r24
 4948 1794 9E83      		std Y+6,r25
 4949 1796 AF83      		std Y+7,r26
 4950 1798 B887      		std Y+8,r27
 4951 179a 00C0      		rjmp .L291
 4952               	.L191:
 4953 179c 81E0      		ldi r24,lo8(1)
 4954 179e ED88      		ldd r14,Y+21
 4955 17a0 FE88      		ldd r15,Y+22
 4956 17a2 0F89      		ldd r16,Y+23
 4957 17a4 188D      		ldd r17,Y+24
 4958 17a6 E814      		cp r14,r8
 4959 17a8 F904      		cpc r15,r9
 4960 17aa 0A05      		cpc r16,r10
 4961 17ac 1B05      		cpc r17,r11
 4962 17ae 00F0      		brlo .L196
 4963 17b0 80E0      		ldi r24,0
 4964               	.L196:
 4965 17b2 8D8B      		std Y+21,r24
 4966 17b4 1E8A      		std Y+22,__zero_reg__
 4967 17b6 1F8A      		std Y+23,__zero_reg__
 4968 17b8 188E      		std Y+24,__zero_reg__
 4969 17ba 8D80      		ldd r8,Y+5
 4970 17bc 9E80      		ldd r9,Y+6
 4971 17be AF80      		ldd r10,Y+7
 4972 17c0 B884      		ldd r11,Y+8
 4973 17c2 0D8D      		ldd r16,Y+29
 4974 17c4 1E8D      		ldd r17,Y+30
 4975 17c6 2F8D      		ldd r18,Y+31
 4976 17c8 38A1      		ldd r19,Y+32
 4977 17ca 0D83      		std Y+5,r16
 4978 17cc 1E83      		std Y+6,r17
 4979 17ce 2F83      		std Y+7,r18
 4980 17d0 3887      		std Y+8,r19
 4981 17d2 00C0      		rjmp .L291
 4982               	.L190:
 4983 17d4 2D89      		ldd r18,Y+21
 4984 17d6 3E89      		ldd r19,Y+22
 4985 17d8 4F89      		ldd r20,Y+23
 4986 17da 588D      		ldd r21,Y+24
 4987 17dc 2825      		eor r18,r8
 4988 17de 3925      		eor r19,r9
 4989 17e0 4A25      		eor r20,r10
 4990 17e2 5B25      		eor r21,r11
 4991 17e4 2D8B      		std Y+21,r18
 4992 17e6 3E8B      		std Y+22,r19
 4993 17e8 4F8B      		std Y+23,r20
 4994 17ea 588F      		std Y+24,r21
 4995 17ec 8D80      		ldd r8,Y+5
 4996 17ee 9E80      		ldd r9,Y+6
 4997 17f0 AF80      		ldd r10,Y+7
 4998 17f2 B884      		ldd r11,Y+8
 4999 17f4 4D8D      		ldd r20,Y+29
 5000 17f6 5E8D      		ldd r21,Y+30
 5001 17f8 6F8D      		ldd r22,Y+31
 5002 17fa 78A1      		ldd r23,Y+32
 5003 17fc 4D83      		std Y+5,r20
 5004 17fe 5E83      		std Y+6,r21
 5005 1800 6F83      		std Y+7,r22
 5006 1802 7887      		std Y+8,r23
 5007 1804 00C0      		rjmp .L291
 5008               	.L192:
 5009 1806 81E0      		ldi r24,lo8(1)
 5010 1808 2D89      		ldd r18,Y+21
 5011 180a 3E89      		ldd r19,Y+22
 5012 180c 4F89      		ldd r20,Y+23
 5013 180e 588D      		ldd r21,Y+24
 5014 1810 2815      		cp r18,r8
 5015 1812 3905      		cpc r19,r9
 5016 1814 4A05      		cpc r20,r10
 5017 1816 5B05      		cpc r21,r11
 5018 1818 04F0      		brlt .L195
 5019 181a 80E0      		ldi r24,0
 5020               	.L195:
 5021 181c 8D8B      		std Y+21,r24
 5022 181e 1E8A      		std Y+22,__zero_reg__
 5023 1820 1F8A      		std Y+23,__zero_reg__
 5024 1822 188E      		std Y+24,__zero_reg__
 5025 1824 8D80      		ldd r8,Y+5
 5026 1826 9E80      		ldd r9,Y+6
 5027 1828 AF80      		ldd r10,Y+7
 5028 182a B884      		ldd r11,Y+8
 5029 182c 4D8D      		ldd r20,Y+29
 5030 182e 5E8D      		ldd r21,Y+30
 5031 1830 6F8D      		ldd r22,Y+31
 5032 1832 78A1      		ldd r23,Y+32
 5033 1834 4D83      		std Y+5,r20
 5034 1836 5E83      		std Y+6,r21
 5035 1838 6F83      		std Y+7,r22
 5036 183a 7887      		std Y+8,r23
 5037 183c 00C0      		rjmp .L291
 5038               	.L188:
 5039 183e 2D89      		ldd r18,Y+21
 5040 1840 3E89      		ldd r19,Y+22
 5041 1842 4F89      		ldd r20,Y+23
 5042 1844 588D      		ldd r21,Y+24
 5043 1846 2829      		or r18,r8
 5044 1848 3929      		or r19,r9
 5045 184a 4A29      		or r20,r10
 5046 184c 5B29      		or r21,r11
 5047 184e 2D8B      		std Y+21,r18
 5048 1850 3E8B      		std Y+22,r19
 5049 1852 4F8B      		std Y+23,r20
 5050 1854 588F      		std Y+24,r21
 5051 1856 8D80      		ldd r8,Y+5
 5052 1858 9E80      		ldd r9,Y+6
 5053 185a AF80      		ldd r10,Y+7
 5054 185c B884      		ldd r11,Y+8
 5055 185e 4D8D      		ldd r20,Y+29
 5056 1860 5E8D      		ldd r21,Y+30
 5057 1862 6F8D      		ldd r22,Y+31
 5058 1864 78A1      		ldd r23,Y+32
 5059 1866 4D83      		std Y+5,r20
 5060 1868 5E83      		std Y+6,r21
 5061 186a 6F83      		std Y+7,r22
 5062 186c 7887      		std Y+8,r23
 5063 186e 00C0      		rjmp .L291
 5064               	.L193:
 5065 1870 9FE1      		ldi r25,31
 5066 1872 8922      		and r8,r25
 5067 1874 9924      		clr r9
 5068 1876 ED88      		ldd r14,Y+21
 5069 1878 FE88      		ldd r15,Y+22
 5070 187a 0F89      		ldd r16,Y+23
 5071 187c 188D      		ldd r17,Y+24
 5072 187e 00C0      		rjmp 2f
 5073               		1:
 5074 1880 EE0C      		lsl r14
 5075 1882 FF1C      		rol r15
 5076 1884 001F      		rol r16
 5077 1886 111F      		rol r17
 5078               		2:
 5079 1888 8A94      		dec r8
 5080 188a 02F4      		brpl 1b
 5081 188c ED8A      		std Y+21,r14
 5082 188e FE8A      		std Y+22,r15
 5083 1890 0F8B      		std Y+23,r16
 5084 1892 188F      		std Y+24,r17
 5085 1894 8D80      		ldd r8,Y+5
 5086 1896 9E80      		ldd r9,Y+6
 5087 1898 AF80      		ldd r10,Y+7
 5088 189a B884      		ldd r11,Y+8
 5089 189c 0D8D      		ldd r16,Y+29
 5090 189e 1E8D      		ldd r17,Y+30
 5091 18a0 2F8D      		ldd r18,Y+31
 5092 18a2 38A1      		ldd r19,Y+32
 5093 18a4 0D83      		std Y+5,r16
 5094 18a6 1E83      		std Y+6,r17
 5095 18a8 2F83      		std Y+7,r18
 5096 18aa 3887      		std Y+8,r19
 5097 18ac 00C0      		rjmp .L291
 5098               	.L186:
 5099 18ae 6D89      		ldd r22,Y+21
 5100 18b0 7E89      		ldd r23,Y+22
 5101 18b2 8F89      		ldd r24,Y+23
 5102 18b4 988D      		ldd r25,Y+24
 5103 18b6 6821      		and r22,r8
 5104 18b8 7921      		and r23,r9
 5105 18ba 8A21      		and r24,r10
 5106 18bc 9B21      		and r25,r11
 5107 18be 6D8B      		std Y+21,r22
 5108 18c0 7E8B      		std Y+22,r23
 5109 18c2 8F8B      		std Y+23,r24
 5110 18c4 988F      		std Y+24,r25
 5111 18c6 8D80      		ldd r8,Y+5
 5112 18c8 9E80      		ldd r9,Y+6
 5113 18ca AF80      		ldd r10,Y+7
 5114 18cc B884      		ldd r11,Y+8
 5115 18ce 8D8D      		ldd r24,Y+29
 5116 18d0 9E8D      		ldd r25,Y+30
 5117 18d2 AF8D      		ldd r26,Y+31
 5118 18d4 B8A1      		ldd r27,Y+32
 5119 18d6 8D83      		std Y+5,r24
 5120 18d8 9E83      		std Y+6,r25
 5121 18da AF83      		std Y+7,r26
 5122 18dc B887      		std Y+8,r27
 5123 18de 00C0      		rjmp .L291
 5124               	.L262:
 5125 18e0 3D89      		ldd r19,Y+21
 5126 18e2 2E89      		ldd r18,Y+22
 5127 18e4 9F89      		ldd r25,Y+23
 5128 18e6 888D      		ldd r24,Y+24
 5129 18e8 ED88      		ldd r14,Y+21
 5130 18ea FE88      		ldd r15,Y+22
 5131 18ec 0F89      		ldd r16,Y+23
 5132 18ee 188D      		ldd r17,Y+24
 5133 18f0 4D8D      		ldd r20,Y+29
 5134 18f2 5E8D      		ldd r21,Y+30
 5135 18f4 6F8D      		ldd r22,Y+31
 5136 18f6 78A1      		ldd r23,Y+32
 5137 18f8 E416      		cp r14,r20
 5138 18fa F506      		cpc r15,r21
 5139 18fc 0607      		cpc r16,r22
 5140 18fe 1707      		cpc r17,r23
 5141 1900 04F4      		brge .L274
 5142               	.L526:
 5143 1902 3D8D      		ldd r19,Y+29
 5144 1904 2E8D      		ldd r18,Y+30
 5145 1906 9F8D      		ldd r25,Y+31
 5146 1908 88A1      		ldd r24,Y+32
 5147               	.L274:
 5148 190a 3D8F      		std Y+29,r19
 5149 190c 2E8F      		std Y+30,r18
 5150 190e 9F8F      		std Y+31,r25
 5151 1910 88A3      		std Y+32,r24
 5152               	.L269:
 5153 1912 2D8D      		ldd r18,Y+29
 5154 1914 3E8D      		ldd r19,Y+30
 5155 1916 4F8D      		ldd r20,Y+31
 5156 1918 58A1      		ldd r21,Y+32
 5157 191a C501      		movw r24,r10
 5158 191c B401      		movw r22,r8
 5159 191e 0E94 0000 		call store4.isra.0
 5160               	.L253:
 5161 1922 8D80      		ldd r8,Y+5
 5162 1924 9E80      		ldd r9,Y+6
 5163 1926 AF80      		ldd r10,Y+7
 5164 1928 B884      		ldd r11,Y+8
 5165 192a C501      		movw r24,r10
 5166 192c B401      		movw r22,r8
 5167 192e 6C5F      		subi r22,-4
 5168 1930 7F4F      		sbci r23,-1
 5169 1932 8F4F      		sbci r24,-1
 5170 1934 9F4F      		sbci r25,-1
 5171 1936 6D83      		std Y+5,r22
 5172 1938 7E83      		std Y+6,r23
 5173 193a 8F83      		std Y+7,r24
 5174 193c 9887      		std Y+8,r25
 5175 193e 00C0      		rjmp .L291
 5176               	.L548:
 5177 1940 0817      		cp r16,r24
 5178 1942 1907      		cpc r17,r25
 5179 1944 2A07      		cpc r18,r26
 5180 1946 3B07      		cpc r19,r27
 5181 1948 00F4      		brsh .+2
 5182 194a 00C0      		rjmp .L143
 5183 194c 00C0      		rjmp .L144
 5184               	.L141:
 5185 194e 0817      		cp r16,r24
 5186 1950 1907      		cpc r17,r25
 5187 1952 2A07      		cpc r18,r26
 5188 1954 3B07      		cpc r19,r27
 5189 1956 04F4      		brge .+2
 5190 1958 00C0      		rjmp .L143
 5191 195a 00C0      		rjmp .L144
 5192               	.L136:
 5193 195c 0817      		cp r16,r24
 5194 195e 1907      		cpc r17,r25
 5195 1960 2A07      		cpc r18,r26
 5196 1962 3B07      		cpc r19,r27
 5197 1964 04F0      		brlt .+2
 5198 1966 00C0      		rjmp .L143
 5199 1968 00C0      		rjmp .L144
 5200               	.L168:
 5201 196a 2D89      		ldd r18,Y+21
 5202 196c 3D8D      		ldd r19,Y+29
 5203 196e C501      		movw r24,r10
 5204 1970 B401      		movw r22,r8
 5205 1972 0E94 0000 		call store4.isra.0
 5206 1976 00C0      		rjmp .L144
 5207               	.L150:
 5208 1978 0530      		cpi r16,5
 5209 197a 1105      		cpc r17,__zero_reg__
 5210 197c 2105      		cpc r18,__zero_reg__
 5211 197e B0E1      		ldi r27,16
 5212 1980 3B07      		cpc r19,r27
 5213 1982 01F4      		brne .+2
 5214 1984 00C0      		rjmp .L554
 5215 1986 0115      		cp r16,__zero_reg__
 5216 1988 1105      		cpc r17,__zero_reg__
 5217 198a 2105      		cpc r18,__zero_reg__
 5218 198c 3041      		sbci r19,16
 5219 198e 01F4      		brne .+2
 5220 1990 00C0      		rjmp .L555
 5221               	.L309:
 5222 1992 8D80      		ldd r8,Y+5
 5223 1994 9E80      		ldd r9,Y+6
 5224 1996 AF80      		ldd r10,Y+7
 5225 1998 B884      		ldd r11,Y+8
 5226 199a CD82      		std Y+5,r12
 5227 199c DE82      		std Y+6,r13
 5228 199e EF82      		std Y+7,r14
 5229 19a0 F886      		std Y+8,r15
 5230 19a2 1D8A      		std Y+21,__zero_reg__
 5231 19a4 1E8A      		std Y+22,__zero_reg__
 5232 19a6 1F8A      		std Y+23,__zero_reg__
 5233 19a8 188E      		std Y+24,__zero_reg__
 5234 19aa 00C0      		rjmp .L291
 5235               	.L532:
 5236 19ac 80E0      		ldi r24,lo8(__heap_start)
 5237 19ae 90E0      		ldi r25,hi8(__heap_start)
 5238 19b0 0C94 0000 		jmp .L115
 5239               	.L536:
 5240 19b4 E989      		ldd r30,Y+17
 5241 19b6 FA89      		ldd r31,Y+18
 5242 19b8 E856      		subi r30,104
 5243 19ba FF4F      		sbci r31,-1
 5244 19bc 8D88      		ldd r8,Y+21
 5245 19be 8082      		st Z,r8
 5246 19c0 9D8C      		ldd r9,Y+29
 5247 19c2 9182      		std Z+1,r9
 5248 19c4 4283      		std Z+2,r20
 5249 19c6 5383      		std Z+3,r21
 5250 19c8 00C0      		rjmp .L144
 5251               	.L257:
 5252 19ca A9A1      		ldd r26,Y+33
 5253 19cc BAA1      		ldd r27,Y+34
 5254 19ce 0D91      		ld r16,X+
 5255 19d0 1D91      		ld r17,X+
 5256 19d2 2D91      		ld r18,X+
 5257 19d4 3C91      		ld r19,X
 5258 19d6 0370      		andi r16,3
 5259 19d8 1127      		clr r17
 5260 19da 2227      		clr r18
 5261 19dc 3327      		clr r19
 5262 19de 89E0      		ldi r24,lo8(9)
 5263 19e0 90E0      		ldi r25,0
 5264 19e2 A0E0      		ldi r26,0
 5265 19e4 B0E0      		ldi r27,0
 5266 19e6 0115      		cp r16,__zero_reg__
 5267 19e8 1105      		cpc r17,__zero_reg__
 5268 19ea 2105      		cpc r18,__zero_reg__
 5269 19ec 3105      		cpc r19,__zero_reg__
 5270 19ee 01F4      		brne .+2
 5271 19f0 00C0      		rjmp .L148
 5272 19f2 00E0      		ldi r16,0
 5273 19f4 10E0      		ldi r17,0
 5274 19f6 9801      		movw r18,r16
 5275 19f8 8CE0      		ldi r24,lo8(12)
 5276 19fa 90E0      		ldi r25,0
 5277 19fc A0E0      		ldi r26,0
 5278 19fe B0E0      		ldi r27,0
 5279 1a00 00C0      		rjmp .L148
 5280               	.L197:
 5281 1a02 ED88      		ldd r14,Y+21
 5282 1a04 FE88      		ldd r15,Y+22
 5283 1a06 0F89      		ldd r16,Y+23
 5284 1a08 188D      		ldd r17,Y+24
 5285 1a0a 00C0      		rjmp 2f
 5286               		1:
 5287 1a0c 1695      		lsr r17
 5288 1a0e 0795      		ror r16
 5289 1a10 F794      		ror r15
 5290 1a12 E794      		ror r14
 5291               		2:
 5292 1a14 8A94      		dec r8
 5293 1a16 02F4      		brpl 1b
 5294 1a18 ED8A      		std Y+21,r14
 5295 1a1a FE8A      		std Y+22,r15
 5296 1a1c 0F8B      		std Y+23,r16
 5297 1a1e 188F      		std Y+24,r17
 5298 1a20 8D80      		ldd r8,Y+5
 5299 1a22 9E80      		ldd r9,Y+6
 5300 1a24 AF80      		ldd r10,Y+7
 5301 1a26 B884      		ldd r11,Y+8
 5302 1a28 0D8D      		ldd r16,Y+29
 5303 1a2a 1E8D      		ldd r17,Y+30
 5304 1a2c 2F8D      		ldd r18,Y+31
 5305 1a2e 38A1      		ldd r19,Y+32
 5306 1a30 0D83      		std Y+5,r16
 5307 1a32 1E83      		std Y+6,r17
 5308 1a34 2F83      		std Y+7,r18
 5309 1a36 3887      		std Y+8,r19
 5310 1a38 00C0      		rjmp .L291
 5311               	.L185:
 5312 1a3a 00E2      		ldi r16,32
 5313 1a3c C022      		and r12,r16
 5314 1a3e DD24      		clr r13
 5315 1a40 EE24      		clr r14
 5316 1a42 00E4      		ldi r16,64
 5317 1a44 F022      		and r15,r16
 5318 1a46 10E2      		ldi r17,32
 5319 1a48 C116      		cp r12,r17
 5320 1a4a D104      		cpc r13,__zero_reg__
 5321 1a4c E104      		cpc r14,__zero_reg__
 5322 1a4e 10E4      		ldi r17,64
 5323 1a50 F106      		cpc r15,r17
 5324 1a52 01F0      		breq .+2
 5325 1a54 00C0      		rjmp .L194
 5326 1a56 2D89      		ldd r18,Y+21
 5327 1a58 3E89      		ldd r19,Y+22
 5328 1a5a 4F89      		ldd r20,Y+23
 5329 1a5c 588D      		ldd r21,Y+24
 5330 1a5e 2819      		sub r18,r8
 5331 1a60 3909      		sbc r19,r9
 5332 1a62 4A09      		sbc r20,r10
 5333 1a64 5B09      		sbc r21,r11
 5334 1a66 2D8B      		std Y+21,r18
 5335 1a68 3E8B      		std Y+22,r19
 5336 1a6a 4F8B      		std Y+23,r20
 5337 1a6c 588F      		std Y+24,r21
 5338 1a6e 8D80      		ldd r8,Y+5
 5339 1a70 9E80      		ldd r9,Y+6
 5340 1a72 AF80      		ldd r10,Y+7
 5341 1a74 B884      		ldd r11,Y+8
 5342 1a76 4D8D      		ldd r20,Y+29
 5343 1a78 5E8D      		ldd r21,Y+30
 5344 1a7a 6F8D      		ldd r22,Y+31
 5345 1a7c 78A1      		ldd r23,Y+32
 5346 1a7e 4D83      		std Y+5,r20
 5347 1a80 5E83      		std Y+6,r21
 5348 1a82 6F83      		std Y+7,r22
 5349 1a84 7887      		std Y+8,r23
 5350 1a86 00C0      		rjmp .L291
 5351               	.L177:
 5352 1a88 8114      		cp r8,__zero_reg__
 5353 1a8a 9104      		cpc r9,__zero_reg__
 5354 1a8c A104      		cpc r10,__zero_reg__
 5355 1a8e B104      		cpc r11,__zero_reg__
 5356 1a90 01F4      		brne .+2
 5357 1a92 00C0      		rjmp .L315
 5358 1a94 2D89      		ldd r18,Y+21
 5359 1a96 3E89      		ldd r19,Y+22
 5360 1a98 4F89      		ldd r20,Y+23
 5361 1a9a 588D      		ldd r21,Y+24
 5362 1a9c 2115      		cp r18,__zero_reg__
 5363 1a9e 3105      		cpc r19,__zero_reg__
 5364 1aa0 4105      		cpc r20,__zero_reg__
 5365 1aa2 5048      		sbci r21,-128
 5366 1aa4 01F4      		brne .+2
 5367 1aa6 00C0      		rjmp .L556
 5368               	.L184:
 5369 1aa8 6D89      		ldd r22,Y+21
 5370 1aaa 7E89      		ldd r23,Y+22
 5371 1aac 8F89      		ldd r24,Y+23
 5372 1aae 988D      		ldd r25,Y+24
 5373 1ab0 A501      		movw r20,r10
 5374 1ab2 9401      		movw r18,r8
 5375 1ab4 0E94 0000 		call __divmodsi4
 5376 1ab8 6D8B      		std Y+21,r22
 5377 1aba 7E8B      		std Y+22,r23
 5378 1abc 8F8B      		std Y+23,r24
 5379 1abe 988F      		std Y+24,r25
 5380 1ac0 8D80      		ldd r8,Y+5
 5381 1ac2 9E80      		ldd r9,Y+6
 5382 1ac4 AF80      		ldd r10,Y+7
 5383 1ac6 B884      		ldd r11,Y+8
 5384 1ac8 8D8D      		ldd r24,Y+29
 5385 1aca 9E8D      		ldd r25,Y+30
 5386 1acc AF8D      		ldd r26,Y+31
 5387 1ace B8A1      		ldd r27,Y+32
 5388 1ad0 8D83      		std Y+5,r24
 5389 1ad2 9E83      		std Y+6,r25
 5390 1ad4 AF83      		std Y+7,r26
 5391 1ad6 B887      		std Y+8,r27
 5392 1ad8 00C0      		rjmp .L291
 5393               	.L180:
 5394 1ada 6D89      		ldd r22,Y+21
 5395 1adc 7E89      		ldd r23,Y+22
 5396 1ade 8F89      		ldd r24,Y+23
 5397 1ae0 988D      		ldd r25,Y+24
 5398 1ae2 A501      		movw r20,r10
 5399 1ae4 9401      		movw r18,r8
 5400 1ae6 0E94 0000 		call __umulsidi3
 5401 1aea 00E2      		ldi r16,lo8(32)
 5402 1aec 0E94 0000 		call __lshrdi3
 5403 1af0 2D8B      		std Y+21,r18
 5404 1af2 3E8B      		std Y+22,r19
 5405 1af4 4F8B      		std Y+23,r20
 5406 1af6 588F      		std Y+24,r21
 5407 1af8 8D80      		ldd r8,Y+5
 5408 1afa 9E80      		ldd r9,Y+6
 5409 1afc AF80      		ldd r10,Y+7
 5410 1afe B884      		ldd r11,Y+8
 5411 1b00 2D8D      		ldd r18,Y+29
 5412 1b02 3E8D      		ldd r19,Y+30
 5413 1b04 4F8D      		ldd r20,Y+31
 5414 1b06 58A1      		ldd r21,Y+32
 5415 1b08 2D83      		std Y+5,r18
 5416 1b0a 3E83      		std Y+6,r19
 5417 1b0c 4F83      		std Y+7,r20
 5418 1b0e 5887      		std Y+8,r21
 5419 1b10 00C0      		rjmp .L291
 5420               	.L181:
 5421 1b12 ED88      		ldd r14,Y+21
 5422 1b14 FE88      		ldd r15,Y+22
 5423 1b16 0F89      		ldd r16,Y+23
 5424 1b18 188D      		ldd r17,Y+24
 5425 1b1a 110F      		lsl r17
 5426 1b1c EE08      		sbc r14,r14
 5427 1b1e FE2C      		mov r15,r14
 5428 1b20 8701      		movw r16,r14
 5429 1b22 EDA6      		std Y+45,r14
 5430 1b24 FEA6      		std Y+46,r15
 5431 1b26 0FA7      		std Y+47,r16
 5432 1b28 18AB      		std Y+48,r17
 5433 1b2a 9501      		movw r18,r10
 5434 1b2c 8401      		movw r16,r8
 5435 1b2e 5401      		movw r10,r8
 5436 1b30 6901      		movw r12,r18
 5437 1b32 E12C      		mov r14,__zero_reg__
 5438 1b34 F12C      		mov r15,__zero_reg__
 5439 1b36 00E0      		ldi r16,0
 5440 1b38 10E0      		ldi r17,0
 5441 1b3a 2D89      		ldd r18,Y+21
 5442 1b3c 3E89      		ldd r19,Y+22
 5443 1b3e 4F89      		ldd r20,Y+23
 5444 1b40 588D      		ldd r21,Y+24
 5445 1b42 6DA5      		ldd r22,Y+45
 5446 1b44 762F      		mov r23,r22
 5447 1b46 862F      		mov r24,r22
 5448 1b48 962F      		mov r25,r22
 5449 1b4a 0E94 0000 		call __muldi3
 5450 1b4e 00E2      		ldi r16,lo8(32)
 5451 1b50 0E94 0000 		call __lshrdi3
 5452 1b54 2D8B      		std Y+21,r18
 5453 1b56 3E8B      		std Y+22,r19
 5454 1b58 4F8B      		std Y+23,r20
 5455 1b5a 588F      		std Y+24,r21
 5456 1b5c 8D80      		ldd r8,Y+5
 5457 1b5e 9E80      		ldd r9,Y+6
 5458 1b60 AF80      		ldd r10,Y+7
 5459 1b62 B884      		ldd r11,Y+8
 5460 1b64 0D8D      		ldd r16,Y+29
 5461 1b66 1E8D      		ldd r17,Y+30
 5462 1b68 2F8D      		ldd r18,Y+31
 5463 1b6a 38A1      		ldd r19,Y+32
 5464 1b6c 0D83      		std Y+5,r16
 5465 1b6e 1E83      		std Y+6,r17
 5466 1b70 2F83      		std Y+7,r18
 5467 1b72 3887      		std Y+8,r19
 5468 1b74 00C0      		rjmp .L291
 5469               	.L178:
 5470 1b76 8114      		cp r8,__zero_reg__
 5471 1b78 9104      		cpc r9,__zero_reg__
 5472 1b7a A104      		cpc r10,__zero_reg__
 5473 1b7c B104      		cpc r11,__zero_reg__
 5474 1b7e 01F4      		brne .+2
 5475 1b80 00C0      		rjmp .L314
 5476 1b82 6D89      		ldd r22,Y+21
 5477 1b84 7E89      		ldd r23,Y+22
 5478 1b86 8F89      		ldd r24,Y+23
 5479 1b88 988D      		ldd r25,Y+24
 5480 1b8a A501      		movw r20,r10
 5481 1b8c 9401      		movw r18,r8
 5482 1b8e 0E94 0000 		call __udivmodsi4
 5483 1b92 2D8B      		std Y+21,r18
 5484 1b94 3E8B      		std Y+22,r19
 5485 1b96 4F8B      		std Y+23,r20
 5486 1b98 588F      		std Y+24,r21
 5487 1b9a 8D80      		ldd r8,Y+5
 5488 1b9c 9E80      		ldd r9,Y+6
 5489 1b9e AF80      		ldd r10,Y+7
 5490 1ba0 B884      		ldd r11,Y+8
 5491 1ba2 0D8D      		ldd r16,Y+29
 5492 1ba4 1E8D      		ldd r17,Y+30
 5493 1ba6 2F8D      		ldd r18,Y+31
 5494 1ba8 38A1      		ldd r19,Y+32
 5495 1baa 0D83      		std Y+5,r16
 5496 1bac 1E83      		std Y+6,r17
 5497 1bae 2F83      		std Y+7,r18
 5498 1bb0 3887      		std Y+8,r19
 5499 1bb2 0C94 0000 		jmp .L291
 5500               	.L179:
 5501 1bb6 8114      		cp r8,__zero_reg__
 5502 1bb8 9104      		cpc r9,__zero_reg__
 5503 1bba A104      		cpc r10,__zero_reg__
 5504 1bbc B104      		cpc r11,__zero_reg__
 5505 1bbe 01F4      		brne .+2
 5506 1bc0 00C0      		rjmp .L312
 5507 1bc2 4D89      		ldd r20,Y+21
 5508 1bc4 5E89      		ldd r21,Y+22
 5509 1bc6 6F89      		ldd r22,Y+23
 5510 1bc8 788D      		ldd r23,Y+24
 5511 1bca 4115      		cp r20,__zero_reg__
 5512 1bcc 5105      		cpc r21,__zero_reg__
 5513 1bce 6105      		cpc r22,__zero_reg__
 5514 1bd0 7048      		sbci r23,-128
 5515 1bd2 01F4      		brne .+2
 5516 1bd4 00C0      		rjmp .L557
 5517               	.L183:
 5518 1bd6 6D89      		ldd r22,Y+21
 5519 1bd8 7E89      		ldd r23,Y+22
 5520 1bda 8F89      		ldd r24,Y+23
 5521 1bdc 988D      		ldd r25,Y+24
 5522 1bde A501      		movw r20,r10
 5523 1be0 9401      		movw r18,r8
 5524 1be2 0E94 0000 		call __divmodsi4
 5525 1be6 2D8B      		std Y+21,r18
 5526 1be8 3E8B      		std Y+22,r19
 5527 1bea 4F8B      		std Y+23,r20
 5528 1bec 588F      		std Y+24,r21
 5529 1bee 8D80      		ldd r8,Y+5
 5530 1bf0 9E80      		ldd r9,Y+6
 5531 1bf2 AF80      		ldd r10,Y+7
 5532 1bf4 B884      		ldd r11,Y+8
 5533 1bf6 ED8C      		ldd r14,Y+29
 5534 1bf8 FE8C      		ldd r15,Y+30
 5535 1bfa 0F8D      		ldd r16,Y+31
 5536 1bfc 18A1      		ldd r17,Y+32
 5537 1bfe ED82      		std Y+5,r14
 5538 1c00 FE82      		std Y+6,r15
 5539 1c02 0F83      		std Y+7,r16
 5540 1c04 1887      		std Y+8,r17
 5541 1c06 0C94 0000 		jmp .L291
 5542               	.L182:
 5543 1c0a 6D89      		ldd r22,Y+21
 5544 1c0c 7E89      		ldd r23,Y+22
 5545 1c0e 8F89      		ldd r24,Y+23
 5546 1c10 988D      		ldd r25,Y+24
 5547 1c12 A501      		movw r20,r10
 5548 1c14 9401      		movw r18,r8
 5549 1c16 0E94 0000 		call __mulsidi3
 5550 1c1a 00E2      		ldi r16,lo8(32)
 5551 1c1c 0E94 0000 		call __ashrdi3
 5552 1c20 2D8B      		std Y+21,r18
 5553 1c22 3E8B      		std Y+22,r19
 5554 1c24 4F8B      		std Y+23,r20
 5555 1c26 588F      		std Y+24,r21
 5556 1c28 8D80      		ldd r8,Y+5
 5557 1c2a 9E80      		ldd r9,Y+6
 5558 1c2c AF80      		ldd r10,Y+7
 5559 1c2e B884      		ldd r11,Y+8
 5560 1c30 8D8D      		ldd r24,Y+29
 5561 1c32 9E8D      		ldd r25,Y+30
 5562 1c34 AF8D      		ldd r26,Y+31
 5563 1c36 B8A1      		ldd r27,Y+32
 5564 1c38 8D83      		std Y+5,r24
 5565 1c3a 9E83      		std Y+6,r25
 5566 1c3c AF83      		std Y+7,r26
 5567 1c3e B887      		std Y+8,r27
 5568 1c40 0C94 0000 		jmp .L291
 5569               	.L175:
 5570 1c44 8114      		cp r8,__zero_reg__
 5571 1c46 9104      		cpc r9,__zero_reg__
 5572 1c48 A104      		cpc r10,__zero_reg__
 5573 1c4a B104      		cpc r11,__zero_reg__
 5574 1c4c 01F4      		brne .+2
 5575 1c4e 00C0      		rjmp .L317
 5576 1c50 6D89      		ldd r22,Y+21
 5577 1c52 7E89      		ldd r23,Y+22
 5578 1c54 8F89      		ldd r24,Y+23
 5579 1c56 988D      		ldd r25,Y+24
 5580 1c58 A501      		movw r20,r10
 5581 1c5a 9401      		movw r18,r8
 5582 1c5c 0E94 0000 		call __udivmodsi4
 5583 1c60 6D8B      		std Y+21,r22
 5584 1c62 7E8B      		std Y+22,r23
 5585 1c64 8F8B      		std Y+23,r24
 5586 1c66 988F      		std Y+24,r25
 5587 1c68 8D80      		ldd r8,Y+5
 5588 1c6a 9E80      		ldd r9,Y+6
 5589 1c6c AF80      		ldd r10,Y+7
 5590 1c6e B884      		ldd r11,Y+8
 5591 1c70 ED8C      		ldd r14,Y+29
 5592 1c72 FE8C      		ldd r15,Y+30
 5593 1c74 0F8D      		ldd r16,Y+31
 5594 1c76 18A1      		ldd r17,Y+32
 5595 1c78 ED82      		std Y+5,r14
 5596 1c7a FE82      		std Y+6,r15
 5597 1c7c 0F83      		std Y+7,r16
 5598 1c7e 1887      		std Y+8,r17
 5599 1c80 0C94 0000 		jmp .L291
 5600               	.L268:
 5601 1c84 E9A1      		ldd r30,Y+33
 5602 1c86 FAA1      		ldd r31,Y+34
 5603 1c88 8081      		ld r24,Z
 5604 1c8a 9181      		ldd r25,Z+1
 5605 1c8c A281      		ldd r26,Z+2
 5606 1c8e B381      		ldd r27,Z+3
 5607 1c90 8770      		andi r24,7
 5608 1c92 9927      		clr r25
 5609 1c94 AA27      		clr r26
 5610 1c96 BB27      		clr r27
 5611 1c98 33E0      		ldi r19,3
 5612               		1:
 5613 1c9a 880C      		lsl r8
 5614 1c9c 991C      		rol r9
 5615 1c9e AA1C      		rol r10
 5616 1ca0 BB1C      		rol r11
 5617 1ca2 3A95      		dec r19
 5618 1ca4 01F4      		brne 1b
 5619 1ca6 8829      		or r24,r8
 5620 1ca8 9929      		or r25,r9
 5621 1caa AA29      		or r26,r10
 5622 1cac BB29      		or r27,r11
 5623 1cae 8083      		st Z,r24
 5624 1cb0 9183      		std Z+1,r25
 5625 1cb2 A283      		std Z+2,r26
 5626 1cb4 B383      		std Z+3,r27
 5627 1cb6 00C0      		rjmp .L253
 5628               	.L259:
 5629 1cb8 0D8D      		ldd r16,Y+29
 5630 1cba 1E8D      		ldd r17,Y+30
 5631 1cbc 2F8D      		ldd r18,Y+31
 5632 1cbe 38A1      		ldd r19,Y+32
 5633 1cc0 4D89      		ldd r20,Y+21
 5634 1cc2 5E89      		ldd r21,Y+22
 5635 1cc4 6F89      		ldd r22,Y+23
 5636 1cc6 788D      		ldd r23,Y+24
 5637 1cc8 0417      		cp r16,r20
 5638 1cca 1507      		cpc r17,r21
 5639 1ccc 2607      		cpc r18,r22
 5640 1cce 3707      		cpc r19,r23
 5641 1cd0 00F0      		brlo .+2
 5642 1cd2 00C0      		rjmp .L269
 5643 1cd4 4D8F      		std Y+29,r20
 5644 1cd6 5E8F      		std Y+30,r21
 5645 1cd8 6F8F      		std Y+31,r22
 5646 1cda 78A3      		std Y+32,r23
 5647 1cdc 00C0      		rjmp .L269
 5648               	.L261:
 5649 1cde 6D89      		ldd r22,Y+21
 5650 1ce0 7E89      		ldd r23,Y+22
 5651 1ce2 8F89      		ldd r24,Y+23
 5652 1ce4 988D      		ldd r25,Y+24
 5653 1ce6 ED8C      		ldd r14,Y+29
 5654 1ce8 FE8C      		ldd r15,Y+30
 5655 1cea 0F8D      		ldd r16,Y+31
 5656 1cec 18A1      		ldd r17,Y+32
 5657 1cee 6E15      		cp r22,r14
 5658 1cf0 7F05      		cpc r23,r15
 5659 1cf2 8007      		cpc r24,r16
 5660 1cf4 9107      		cpc r25,r17
 5661 1cf6 00F0      		brlo .+2
 5662 1cf8 00C0      		rjmp .L269
 5663 1cfa 6D8F      		std Y+29,r22
 5664 1cfc 7E8F      		std Y+30,r23
 5665 1cfe 8F8F      		std Y+31,r24
 5666 1d00 98A3      		std Y+32,r25
 5667 1d02 00C0      		rjmp .L269
 5668               	.L263:
 5669 1d04 3D89      		ldd r19,Y+21
 5670 1d06 2E89      		ldd r18,Y+22
 5671 1d08 9F89      		ldd r25,Y+23
 5672 1d0a 888D      		ldd r24,Y+24
 5673 1d0c ED8C      		ldd r14,Y+29
 5674 1d0e FE8C      		ldd r15,Y+30
 5675 1d10 0F8D      		ldd r16,Y+31
 5676 1d12 18A1      		ldd r17,Y+32
 5677 1d14 4D89      		ldd r20,Y+21
 5678 1d16 5E89      		ldd r21,Y+22
 5679 1d18 6F89      		ldd r22,Y+23
 5680 1d1a 788D      		ldd r23,Y+24
 5681 1d1c E416      		cp r14,r20
 5682 1d1e F506      		cpc r15,r21
 5683 1d20 0607      		cpc r16,r22
 5684 1d22 1707      		cpc r17,r23
 5685 1d24 04F0      		brlt .+2
 5686 1d26 00C0      		rjmp .L274
 5687 1d28 00C0      		rjmp .L526
 5688               	.L264:
 5689 1d2a ED8C      		ldd r14,Y+29
 5690 1d2c FE8C      		ldd r15,Y+30
 5691 1d2e 0F8D      		ldd r16,Y+31
 5692 1d30 18A1      		ldd r17,Y+32
 5693 1d32 2D89      		ldd r18,Y+21
 5694 1d34 3E89      		ldd r19,Y+22
 5695 1d36 4F89      		ldd r20,Y+23
 5696 1d38 588D      		ldd r21,Y+24
 5697 1d3a E222      		and r14,r18
 5698 1d3c F322      		and r15,r19
 5699 1d3e 0423      		and r16,r20
 5700 1d40 1523      		and r17,r21
 5701 1d42 ED8E      		std Y+29,r14
 5702 1d44 FE8E      		std Y+30,r15
 5703 1d46 0F8F      		std Y+31,r16
 5704 1d48 18A3      		std Y+32,r17
 5705 1d4a 00C0      		rjmp .L269
 5706               	.L265:
 5707 1d4c ED8C      		ldd r14,Y+29
 5708 1d4e FE8C      		ldd r15,Y+30
 5709 1d50 0F8D      		ldd r16,Y+31
 5710 1d52 18A1      		ldd r17,Y+32
 5711 1d54 2D89      		ldd r18,Y+21
 5712 1d56 3E89      		ldd r19,Y+22
 5713 1d58 4F89      		ldd r20,Y+23
 5714 1d5a 588D      		ldd r21,Y+24
 5715 1d5c E22A      		or r14,r18
 5716 1d5e F32A      		or r15,r19
 5717 1d60 042B      		or r16,r20
 5718 1d62 152B      		or r17,r21
 5719 1d64 ED8E      		std Y+29,r14
 5720 1d66 FE8E      		std Y+30,r15
 5721 1d68 0F8F      		std Y+31,r16
 5722 1d6a 18A3      		std Y+32,r17
 5723 1d6c 00C0      		rjmp .L269
 5724               	.L266:
 5725 1d6e ED8C      		ldd r14,Y+29
 5726 1d70 FE8C      		ldd r15,Y+30
 5727 1d72 0F8D      		ldd r16,Y+31
 5728 1d74 18A1      		ldd r17,Y+32
 5729 1d76 2D89      		ldd r18,Y+21
 5730 1d78 3E89      		ldd r19,Y+22
 5731 1d7a 4F89      		ldd r20,Y+23
 5732 1d7c 588D      		ldd r21,Y+24
 5733 1d7e E226      		eor r14,r18
 5734 1d80 F326      		eor r15,r19
 5735 1d82 0427      		eor r16,r20
 5736 1d84 1527      		eor r17,r21
 5737 1d86 ED8E      		std Y+29,r14
 5738 1d88 FE8E      		std Y+30,r15
 5739 1d8a 0F8F      		std Y+31,r16
 5740 1d8c 18A3      		std Y+32,r17
 5741 1d8e 00C0      		rjmp .L269
 5742               	.L267:
 5743 1d90 E9A1      		ldd r30,Y+33
 5744 1d92 FAA1      		ldd r31,Y+34
 5745 1d94 8081      		ld r24,Z
 5746 1d96 9181      		ldd r25,Z+1
 5747 1d98 A281      		ldd r26,Z+2
 5748 1d9a B381      		ldd r27,Z+3
 5749 1d9c 23E0      		ldi r18,3
 5750               		1:
 5751 1d9e B695      		lsr r27
 5752 1da0 A795      		ror r26
 5753 1da2 9795      		ror r25
 5754 1da4 8795      		ror r24
 5755 1da6 2A95      		dec r18
 5756 1da8 01F4      		brne 1b
 5757 1daa 21E0      		ldi r18,lo8(1)
 5758 1dac 8816      		cp r8,r24
 5759 1dae 9906      		cpc r9,r25
 5760 1db0 AA06      		cpc r10,r26
 5761 1db2 BB06      		cpc r11,r27
 5762 1db4 01F4      		brne .L271
 5763 1db6 20E0      		ldi r18,0
 5764               	.L271:
 5765 1db8 2D8B      		std Y+21,r18
 5766 1dba 1E8A      		std Y+22,__zero_reg__
 5767 1dbc 1F8A      		std Y+23,__zero_reg__
 5768 1dbe 188E      		std Y+24,__zero_reg__
 5769 1dc0 8816      		cp r8,r24
 5770 1dc2 9906      		cpc r9,r25
 5771 1dc4 AA06      		cpc r10,r26
 5772 1dc6 BB06      		cpc r11,r27
 5773 1dc8 01F0      		breq .+2
 5774 1dca 00C0      		rjmp .L253
 5775 1dcc 00C0      		rjmp .L269
 5776               	.L270:
 5777 1dce ED8C      		ldd r14,Y+29
 5778 1dd0 FE8C      		ldd r15,Y+30
 5779 1dd2 0F8D      		ldd r16,Y+31
 5780 1dd4 18A1      		ldd r17,Y+32
 5781 1dd6 2D89      		ldd r18,Y+21
 5782 1dd8 3E89      		ldd r19,Y+22
 5783 1dda 4F89      		ldd r20,Y+23
 5784 1ddc 588D      		ldd r21,Y+24
 5785 1dde E20E      		add r14,r18
 5786 1de0 F31E      		adc r15,r19
 5787 1de2 041F      		adc r16,r20
 5788 1de4 151F      		adc r17,r21
 5789 1de6 ED8E      		std Y+29,r14
 5790 1de8 FE8E      		std Y+30,r15
 5791 1dea 0F8F      		std Y+31,r16
 5792 1dec 18A3      		std Y+32,r17
 5793 1dee 00C0      		rjmp .L269
 5794               	.L541:
 5795 1df0 0E94 0000 		call UART_available
 5796 1df4 8115      		cp r24, __zero_reg__
 5797 1df6 01F4      		brne .+2
 5798 1df8 00C0      		rjmp .L322
 5799 1dfa 0E94 0000 		call UART_getc
 5800 1dfe 90E0      		ldi r25,0
 5801 1e00 A0E0      		ldi r26,0
 5802 1e02 B0E0      		ldi r27,0
 5803 1e04 00C0      		rjmp .L212
 5804               	.L210:
 5805 1e06 E989      		ldd r30,Y+17
 5806 1e08 FA89      		ldd r31,Y+18
 5807 1e0a EC57      		subi r30,124
 5808 1e0c FF4F      		sbci r31,-1
 5809 1e0e 4081      		ld r20,Z
 5810 1e10 5181      		ldd r21,Z+1
 5811 1e12 6281      		ldd r22,Z+2
 5812 1e14 7381      		ldd r23,Z+3
 5813 1e16 4D8B      		std Y+21,r20
 5814 1e18 5E8B      		std Y+22,r21
 5815 1e1a 6F8B      		std Y+23,r22
 5816 1e1c 788F      		std Y+24,r23
 5817 1e1e 6D8D      		ldd r22,Y+29
 5818 1e20 7E8D      		ldd r23,Y+30
 5819 1e22 8F8D      		ldd r24,Y+31
 5820 1e24 98A1      		ldd r25,Y+32
 5821 1e26 6530      		cpi r22,5
 5822 1e28 7105      		cpc r23,__zero_reg__
 5823 1e2a 8105      		cpc r24,__zero_reg__
 5824 1e2c 9105      		cpc r25,__zero_reg__
 5825 1e2e 01F4      		brne .+2
 5826 1e30 00C0      		rjmp .L213
 5827 1e32 00F0      		brlo .+2
 5828 1e34 00C0      		rjmp .L228
 5829 1e36 6230      		cpi r22,2
 5830 1e38 7105      		cpc r23,__zero_reg__
 5831 1e3a 8105      		cpc r24,__zero_reg__
 5832 1e3c 9105      		cpc r25,__zero_reg__
 5833 1e3e 01F4      		brne .+2
 5834 1e40 00C0      		rjmp .L215
 5835 1e42 6330      		cpi r22,3
 5836 1e44 7105      		cpc r23,__zero_reg__
 5837 1e46 8105      		cpc r24,__zero_reg__
 5838 1e48 9105      		cpc r25,__zero_reg__
 5839 1e4a 01F4      		brne .+2
 5840 1e4c 00C0      		rjmp .L216
 5841               	.L229:
 5842 1e4e C082      		st Z,r12
 5843 1e50 D182      		std Z+1,r13
 5844 1e52 E282      		std Z+2,r14
 5845 1e54 F382      		std Z+3,r15
 5846 1e56 8D80      		ldd r8,Y+5
 5847 1e58 9E80      		ldd r9,Y+6
 5848 1e5a AF80      		ldd r10,Y+7
 5849 1e5c B884      		ldd r11,Y+8
 5850 1e5e B501      		movw r22,r10
 5851 1e60 A401      		movw r20,r8
 5852 1e62 4C5F      		subi r20,-4
 5853 1e64 5F4F      		sbci r21,-1
 5854 1e66 6F4F      		sbci r22,-1
 5855 1e68 7F4F      		sbci r23,-1
 5856 1e6a 4D83      		std Y+5,r20
 5857 1e6c 5E83      		std Y+6,r21
 5858 1e6e 6F83      		std Y+7,r22
 5859 1e70 7887      		std Y+8,r23
 5860 1e72 0C94 0000 		jmp .L291
 5861               	.L205:
 5862 1e76 E989      		ldd r30,Y+17
 5863 1e78 FA89      		ldd r31,Y+18
 5864 1e7a E055      		subi r30,80
 5865 1e7c FF4F      		sbci r31,-1
 5866 1e7e 6081      		ld r22,Z
 5867 1e80 7181      		ldd r23,Z+1
 5868 1e82 8281      		ldd r24,Z+2
 5869 1e84 9381      		ldd r25,Z+3
 5870 1e86 6D8B      		std Y+21,r22
 5871 1e88 7E8B      		std Y+22,r23
 5872 1e8a 8F8B      		std Y+23,r24
 5873 1e8c 988F      		std Y+24,r25
 5874 1e8e 8D8D      		ldd r24,Y+29
 5875 1e90 9E8D      		ldd r25,Y+30
 5876 1e92 AF8D      		ldd r26,Y+31
 5877 1e94 B8A1      		ldd r27,Y+32
 5878 1e96 8530      		cpi r24,5
 5879 1e98 9105      		cpc r25,__zero_reg__
 5880 1e9a A105      		cpc r26,__zero_reg__
 5881 1e9c B105      		cpc r27,__zero_reg__
 5882 1e9e 01F4      		brne .+2
 5883 1ea0 00C0      		rjmp .L213
 5884 1ea2 00F0      		brlo .+2
 5885 1ea4 00C0      		rjmp .L234
 5886 1ea6 8230      		cpi r24,2
 5887 1ea8 9105      		cpc r25,__zero_reg__
 5888 1eaa A105      		cpc r26,__zero_reg__
 5889 1eac B105      		cpc r27,__zero_reg__
 5890 1eae 01F4      		brne .+2
 5891 1eb0 00C0      		rjmp .L215
 5892 1eb2 0397      		sbiw r24,3
 5893 1eb4 A105      		cpc r26,__zero_reg__
 5894 1eb6 B105      		cpc r27,__zero_reg__
 5895 1eb8 01F4      		brne .+2
 5896 1eba 00C0      		rjmp .L216
 5897               	.L227:
 5898 1ebc C082      		st Z,r12
 5899 1ebe D182      		std Z+1,r13
 5900 1ec0 E282      		std Z+2,r14
 5901 1ec2 F382      		std Z+3,r15
 5902 1ec4 8D80      		ldd r8,Y+5
 5903 1ec6 9E80      		ldd r9,Y+6
 5904 1ec8 AF80      		ldd r10,Y+7
 5905 1eca B884      		ldd r11,Y+8
 5906 1ecc A501      		movw r20,r10
 5907 1ece 9401      		movw r18,r8
 5908 1ed0 2C5F      		subi r18,-4
 5909 1ed2 3F4F      		sbci r19,-1
 5910 1ed4 4F4F      		sbci r20,-1
 5911 1ed6 5F4F      		sbci r21,-1
 5912 1ed8 2D83      		std Y+5,r18
 5913 1eda 3E83      		std Y+6,r19
 5914 1edc 4F83      		std Y+7,r20
 5915 1ede 5887      		std Y+8,r21
 5916 1ee0 0C94 0000 		jmp .L291
 5917               	.L201:
 5918 1ee4 ABA1      		ldd r26,Y+35
 5919 1ee6 BCA1      		ldd r27,Y+36
 5920 1ee8 4D91      		ld r20,X+
 5921 1eea 5D91      		ld r21,X+
 5922 1eec 6D91      		ld r22,X+
 5923 1eee 7C91      		ld r23,X
 5924 1ef0 4D8B      		std Y+21,r20
 5925 1ef2 5E8B      		std Y+22,r21
 5926 1ef4 6F8B      		std Y+23,r22
 5927 1ef6 788F      		std Y+24,r23
 5928 1ef8 2D8D      		ldd r18,Y+29
 5929 1efa 3E8D      		ldd r19,Y+30
 5930 1efc 4F8D      		ldd r20,Y+31
 5931 1efe 58A1      		ldd r21,Y+32
 5932 1f00 2530      		cpi r18,5
 5933 1f02 3105      		cpc r19,__zero_reg__
 5934 1f04 4105      		cpc r20,__zero_reg__
 5935 1f06 5105      		cpc r21,__zero_reg__
 5936 1f08 01F4      		brne .+2
 5937 1f0a 00C0      		rjmp .L213
 5938 1f0c 00F0      		brlo .+2
 5939 1f0e 00C0      		rjmp .L293
 5940 1f10 2230      		cpi r18,2
 5941 1f12 3105      		cpc r19,__zero_reg__
 5942 1f14 4105      		cpc r20,__zero_reg__
 5943 1f16 5105      		cpc r21,__zero_reg__
 5944 1f18 01F4      		brne .+2
 5945 1f1a 00C0      		rjmp .L215
 5946 1f1c 2330      		cpi r18,3
 5947 1f1e 3105      		cpc r19,__zero_reg__
 5948 1f20 4105      		cpc r20,__zero_reg__
 5949 1f22 5105      		cpc r21,__zero_reg__
 5950 1f24 01F4      		brne .+2
 5951 1f26 00C0      		rjmp .L216
 5952 1f28 00C0      		rjmp .L225
 5953               	.L208:
 5954 1f2a E989      		ldd r30,Y+17
 5955 1f2c FA89      		ldd r31,Y+18
 5956 1f2e E855      		subi r30,88
 5957 1f30 FF4F      		sbci r31,-1
 5958 1f32 6081      		ld r22,Z
 5959 1f34 7181      		ldd r23,Z+1
 5960 1f36 8281      		ldd r24,Z+2
 5961 1f38 9381      		ldd r25,Z+3
 5962 1f3a 6D8B      		std Y+21,r22
 5963 1f3c 7E8B      		std Y+22,r23
 5964 1f3e 8F8B      		std Y+23,r24
 5965 1f40 988F      		std Y+24,r25
 5966 1f42 8D8D      		ldd r24,Y+29
 5967 1f44 9E8D      		ldd r25,Y+30
 5968 1f46 AF8D      		ldd r26,Y+31
 5969 1f48 B8A1      		ldd r27,Y+32
 5970 1f4a 8530      		cpi r24,5
 5971 1f4c 9105      		cpc r25,__zero_reg__
 5972 1f4e A105      		cpc r26,__zero_reg__
 5973 1f50 B105      		cpc r27,__zero_reg__
 5974 1f52 01F4      		brne .+2
 5975 1f54 00C0      		rjmp .L213
 5976 1f56 00F0      		brlo .+2
 5977 1f58 00C0      		rjmp .L234
 5978 1f5a 8230      		cpi r24,2
 5979 1f5c 9105      		cpc r25,__zero_reg__
 5980 1f5e A105      		cpc r26,__zero_reg__
 5981 1f60 B105      		cpc r27,__zero_reg__
 5982 1f62 01F4      		brne .+2
 5983 1f64 00C0      		rjmp .L215
 5984 1f66 0397      		sbiw r24,3
 5985 1f68 A105      		cpc r26,__zero_reg__
 5986 1f6a B105      		cpc r27,__zero_reg__
 5987 1f6c 01F4      		brne .+2
 5988 1f6e 00C0      		rjmp .L216
 5989               	.L231:
 5990 1f70 C082      		st Z,r12
 5991 1f72 D182      		std Z+1,r13
 5992 1f74 E282      		std Z+2,r14
 5993 1f76 F382      		std Z+3,r15
 5994 1f78 8D80      		ldd r8,Y+5
 5995 1f7a 9E80      		ldd r9,Y+6
 5996 1f7c AF80      		ldd r10,Y+7
 5997 1f7e B884      		ldd r11,Y+8
 5998 1f80 C501      		movw r24,r10
 5999 1f82 B401      		movw r22,r8
 6000 1f84 6C5F      		subi r22,-4
 6001 1f86 7F4F      		sbci r23,-1
 6002 1f88 8F4F      		sbci r24,-1
 6003 1f8a 9F4F      		sbci r25,-1
 6004 1f8c 6D83      		std Y+5,r22
 6005 1f8e 7E83      		std Y+6,r23
 6006 1f90 8F83      		std Y+7,r24
 6007 1f92 9887      		std Y+8,r25
 6008 1f94 0C94 0000 		jmp .L291
 6009               	.L207:
 6010 1f98 E989      		ldd r30,Y+17
 6011 1f9a FA89      		ldd r31,Y+18
 6012 1f9c EC55      		subi r30,92
 6013 1f9e FF4F      		sbci r31,-1
 6014 1fa0 8081      		ld r24,Z
 6015 1fa2 9181      		ldd r25,Z+1
 6016 1fa4 A281      		ldd r26,Z+2
 6017 1fa6 B381      		ldd r27,Z+3
 6018 1fa8 8D8B      		std Y+21,r24
 6019 1faa 9E8B      		std Y+22,r25
 6020 1fac AF8B      		std Y+23,r26
 6021 1fae B88F      		std Y+24,r27
 6022 1fb0 2D8D      		ldd r18,Y+29
 6023 1fb2 3E8D      		ldd r19,Y+30
 6024 1fb4 4F8D      		ldd r20,Y+31
 6025 1fb6 58A1      		ldd r21,Y+32
 6026 1fb8 2530      		cpi r18,5
 6027 1fba 3105      		cpc r19,__zero_reg__
 6028 1fbc 4105      		cpc r20,__zero_reg__
 6029 1fbe 5105      		cpc r21,__zero_reg__
 6030 1fc0 01F4      		brne .+2
 6031 1fc2 00C0      		rjmp .L213
 6032 1fc4 00F0      		brlo .+2
 6033 1fc6 00C0      		rjmp .L293
 6034 1fc8 2230      		cpi r18,2
 6035 1fca 3105      		cpc r19,__zero_reg__
 6036 1fcc 4105      		cpc r20,__zero_reg__
 6037 1fce 5105      		cpc r21,__zero_reg__
 6038 1fd0 01F4      		brne .+2
 6039 1fd2 00C0      		rjmp .L215
 6040 1fd4 2330      		cpi r18,3
 6041 1fd6 3105      		cpc r19,__zero_reg__
 6042 1fd8 4105      		cpc r20,__zero_reg__
 6043 1fda 5105      		cpc r21,__zero_reg__
 6044 1fdc 01F4      		brne .+2
 6045 1fde 00C0      		rjmp .L216
 6046 1fe0 00C0      		rjmp .L229
 6047               	.L206:
 6048 1fe2 E989      		ldd r30,Y+17
 6049 1fe4 FA89      		ldd r31,Y+18
 6050 1fe6 E056      		subi r30,96
 6051 1fe8 FF4F      		sbci r31,-1
 6052 1fea 2081      		ld r18,Z
 6053 1fec 3181      		ldd r19,Z+1
 6054 1fee 4281      		ldd r20,Z+2
 6055 1ff0 5381      		ldd r21,Z+3
 6056 1ff2 2D8B      		std Y+21,r18
 6057 1ff4 3E8B      		std Y+22,r19
 6058 1ff6 4F8B      		std Y+23,r20
 6059 1ff8 588F      		std Y+24,r21
 6060 1ffa 4D8D      		ldd r20,Y+29
 6061 1ffc 5E8D      		ldd r21,Y+30
 6062 1ffe 6F8D      		ldd r22,Y+31
 6063 2000 78A1      		ldd r23,Y+32
 6064 2002 4530      		cpi r20,5
 6065 2004 5105      		cpc r21,__zero_reg__
 6066 2006 6105      		cpc r22,__zero_reg__
 6067 2008 7105      		cpc r23,__zero_reg__
 6068 200a 01F4      		brne .+2
 6069 200c 00C0      		rjmp .L213
 6070 200e 00F0      		brlo .+2
 6071 2010 00C0      		rjmp .L230
 6072 2012 4230      		cpi r20,2
 6073 2014 5105      		cpc r21,__zero_reg__
 6074 2016 6105      		cpc r22,__zero_reg__
 6075 2018 7105      		cpc r23,__zero_reg__
 6076 201a 01F4      		brne .+2
 6077 201c 00C0      		rjmp .L215
 6078 201e 4330      		cpi r20,3
 6079 2020 5105      		cpc r21,__zero_reg__
 6080 2022 6105      		cpc r22,__zero_reg__
 6081 2024 7105      		cpc r23,__zero_reg__
 6082 2026 01F4      		brne .+2
 6083 2028 00C0      		rjmp .L216
 6084 202a 00C0      		rjmp .L227
 6085               	.L204:
 6086 202c E989      		ldd r30,Y+17
 6087 202e FA89      		ldd r31,Y+18
 6088 2030 E854      		subi r30,72
 6089 2032 FF4F      		sbci r31,-1
 6090 2034 2081      		ld r18,Z
 6091 2036 3181      		ldd r19,Z+1
 6092 2038 4281      		ldd r20,Z+2
 6093 203a 5381      		ldd r21,Z+3
 6094 203c 2D8B      		std Y+21,r18
 6095 203e 3E8B      		std Y+22,r19
 6096 2040 4F8B      		std Y+23,r20
 6097 2042 588F      		std Y+24,r21
 6098 2044 4D8D      		ldd r20,Y+29
 6099 2046 5E8D      		ldd r21,Y+30
 6100 2048 6F8D      		ldd r22,Y+31
 6101 204a 78A1      		ldd r23,Y+32
 6102 204c 4530      		cpi r20,5
 6103 204e 5105      		cpc r21,__zero_reg__
 6104 2050 6105      		cpc r22,__zero_reg__
 6105 2052 7105      		cpc r23,__zero_reg__
 6106 2054 01F4      		brne .+2
 6107 2056 00C0      		rjmp .L213
 6108 2058 00F0      		brlo .+2
 6109 205a 00C0      		rjmp .L230
 6110 205c 4230      		cpi r20,2
 6111 205e 5105      		cpc r21,__zero_reg__
 6112 2060 6105      		cpc r22,__zero_reg__
 6113 2062 7105      		cpc r23,__zero_reg__
 6114 2064 01F4      		brne .+2
 6115 2066 00C0      		rjmp .L215
 6116 2068 4330      		cpi r20,3
 6117 206a 5105      		cpc r21,__zero_reg__
 6118 206c 6105      		cpc r22,__zero_reg__
 6119 206e 7105      		cpc r23,__zero_reg__
 6120 2070 01F4      		brne .+2
 6121 2072 00C0      		rjmp .L216
 6122 2074 00C0      		rjmp .L231
 6123               	.L203:
 6124 2076 E989      		ldd r30,Y+17
 6125 2078 FA89      		ldd r31,Y+18
 6126 207a EC54      		subi r30,76
 6127 207c FF4F      		sbci r31,-1
 6128 207e 8081      		ld r24,Z
 6129 2080 9181      		ldd r25,Z+1
 6130 2082 A281      		ldd r26,Z+2
 6131 2084 B381      		ldd r27,Z+3
 6132 2086 8D8B      		std Y+21,r24
 6133 2088 9E8B      		std Y+22,r25
 6134 208a AF8B      		std Y+23,r26
 6135 208c B88F      		std Y+24,r27
 6136 208e 2D8D      		ldd r18,Y+29
 6137 2090 3E8D      		ldd r19,Y+30
 6138 2092 4F8D      		ldd r20,Y+31
 6139 2094 58A1      		ldd r21,Y+32
 6140 2096 2530      		cpi r18,5
 6141 2098 3105      		cpc r19,__zero_reg__
 6142 209a 4105      		cpc r20,__zero_reg__
 6143 209c 5105      		cpc r21,__zero_reg__
 6144 209e 01F4      		brne .+2
 6145 20a0 00C0      		rjmp .L213
 6146 20a2 00F0      		brlo .+2
 6147 20a4 00C0      		rjmp .L293
 6148 20a6 2230      		cpi r18,2
 6149 20a8 3105      		cpc r19,__zero_reg__
 6150 20aa 4105      		cpc r20,__zero_reg__
 6151 20ac 5105      		cpc r21,__zero_reg__
 6152 20ae 01F4      		brne .+2
 6153 20b0 00C0      		rjmp .L215
 6154 20b2 2330      		cpi r18,3
 6155 20b4 3105      		cpc r19,__zero_reg__
 6156 20b6 4105      		cpc r20,__zero_reg__
 6157 20b8 5105      		cpc r21,__zero_reg__
 6158 20ba 01F4      		brne .+2
 6159 20bc 00C0      		rjmp .L216
 6160               	.L233:
 6161 20be C082      		st Z,r12
 6162 20c0 D182      		std Z+1,r13
 6163 20c2 E282      		std Z+2,r14
 6164 20c4 F382      		std Z+3,r15
 6165 20c6 8D80      		ldd r8,Y+5
 6166 20c8 9E80      		ldd r9,Y+6
 6167 20ca AF80      		ldd r10,Y+7
 6168 20cc B884      		ldd r11,Y+8
 6169 20ce D501      		movw r26,r10
 6170 20d0 C401      		movw r24,r8
 6171 20d2 0496      		adiw r24,4
 6172 20d4 A11D      		adc r26,__zero_reg__
 6173 20d6 B11D      		adc r27,__zero_reg__
 6174 20d8 8D83      		std Y+5,r24
 6175 20da 9E83      		std Y+6,r25
 6176 20dc AF83      		std Y+7,r26
 6177 20de B887      		std Y+8,r27
 6178 20e0 0C94 0000 		jmp .L291
 6179               	.L318:
 6180 20e4 61E0      		ldi r22,lo8(1)
 6181 20e6 71E1      		ldi r23,lo8(17)
 6182 20e8 80E4      		ldi r24,lo8(64)
 6183 20ea 90E4      		ldi r25,lo8(64)
 6184 20ec 6D8B      		std Y+21,r22
 6185 20ee 7E8B      		std Y+22,r23
 6186 20f0 8F8B      		std Y+23,r24
 6187 20f2 988F      		std Y+24,r25
 6188 20f4 00C0      		rjmp .L209
 6189               	.L550:
 6190 20f6 94E0      		ldi r25,4
 6191 20f8 8916      		cp r8,r25
 6192 20fa 93E0      		ldi r25,3
 6193 20fc 9906      		cpc r9,r25
 6194 20fe A104      		cpc r10,__zero_reg__
 6195 2100 B104      		cpc r11,__zero_reg__
 6196 2102 01F4      		brne .+2
 6197 2104 00C0      		rjmp .L558
 6198 2106 A5E0      		ldi r26,5
 6199 2108 8A16      		cp r8,r26
 6200 210a A3E0      		ldi r26,3
 6201 210c 9A06      		cpc r9,r26
 6202 210e A104      		cpc r10,__zero_reg__
 6203 2110 B104      		cpc r11,__zero_reg__
 6204 2112 01F4      		brne .+2
 6205 2114 00C0      		rjmp .L559
 6206 2116 8114      		cp r8,__zero_reg__
 6207 2118 B3E0      		ldi r27,3
 6208 211a 9B06      		cpc r9,r27
 6209 211c A104      		cpc r10,__zero_reg__
 6210 211e B104      		cpc r11,__zero_reg__
 6211 2120 01F0      		breq .+2
 6212 2122 00C0      		rjmp .L505
 6213 2124 E989      		ldd r30,Y+17
 6214 2126 FA89      		ldd r31,Y+18
 6215 2128 EC57      		subi r30,124
 6216 212a FF4F      		sbci r31,-1
 6217 212c 00C0      		rjmp .L229
 6218               	.L293:
 6219 212e 4D8D      		ldd r20,Y+29
 6220 2130 5E8D      		ldd r21,Y+30
 6221 2132 6F8D      		ldd r22,Y+31
 6222 2134 78A1      		ldd r23,Y+32
 6223 2136 4630      		cpi r20,6
 6224 2138 5105      		cpc r21,__zero_reg__
 6225 213a 6105      		cpc r22,__zero_reg__
 6226 213c 7105      		cpc r23,__zero_reg__
 6227 213e 01F0      		breq .L218
 6228               	.L219:
 6229 2140 C801      		movw r24,r16
 6230 2142 8095      		com r24
 6231 2144 9095      		com r25
 6232 2146 092E      		mov __tmp_reg__,r25
 6233 2148 000C      		lsl r0
 6234 214a AA0B      		sbc r26,r26
 6235 214c BB0B      		sbc r27,r27
 6236 214e CD88      		ldd r12,Y+21
 6237 2150 DE88      		ldd r13,Y+22
 6238 2152 EF88      		ldd r14,Y+23
 6239 2154 F88C      		ldd r15,Y+24
 6240 2156 C822      		and r12,r24
 6241 2158 D922      		and r13,r25
 6242 215a EA22      		and r14,r26
 6243 215c FB22      		and r15,r27
 6244 215e 00C0      		rjmp .L236
 6245               	.L215:
 6246 2160 4D89      		ldd r20,Y+21
 6247 2162 5E89      		ldd r21,Y+22
 6248 2164 6F89      		ldd r22,Y+23
 6249 2166 788D      		ldd r23,Y+24
 6250 2168 C42A      		or r12,r20
 6251 216a D52A      		or r13,r21
 6252 216c E62A      		or r14,r22
 6253 216e F72A      		or r15,r23
 6254 2170 00C0      		rjmp .L236
 6255               	.L234:
 6256 2172 2D8D      		ldd r18,Y+29
 6257 2174 3E8D      		ldd r19,Y+30
 6258 2176 4F8D      		ldd r20,Y+31
 6259 2178 58A1      		ldd r21,Y+32
 6260 217a 2630      		cpi r18,6
 6261 217c 3105      		cpc r19,__zero_reg__
 6262 217e 4105      		cpc r20,__zero_reg__
 6263 2180 5105      		cpc r21,__zero_reg__
 6264 2182 01F4      		brne .L219
 6265               	.L218:
 6266 2184 012E      		mov __tmp_reg__,r17
 6267 2186 000C      		lsl r0
 6268 2188 220B      		sbc r18,r18
 6269 218a 330B      		sbc r19,r19
 6270 218c CD88      		ldd r12,Y+21
 6271 218e DE88      		ldd r13,Y+22
 6272 2190 EF88      		ldd r14,Y+23
 6273 2192 F88C      		ldd r15,Y+24
 6274 2194 C02A      		or r12,r16
 6275 2196 D12A      		or r13,r17
 6276 2198 E22A      		or r14,r18
 6277 219a F32A      		or r15,r19
 6278 219c 00C0      		rjmp .L236
 6279               	.L213:
 6280 219e 6801      		movw r12,r16
 6281 21a0 110F      		lsl r17
 6282 21a2 EE08      		sbc r14,r14
 6283 21a4 FF08      		sbc r15,r15
 6284 21a6 00C0      		rjmp .L236
 6285               	.L552:
 6286 21a8 E989      		ldd r30,Y+17
 6287 21aa FA89      		ldd r31,Y+18
 6288 21ac E055      		subi r30,80
 6289 21ae FF4F      		sbci r31,-1
 6290 21b0 00C0      		rjmp .L227
 6291               	.L553:
 6292 21b2 E989      		ldd r30,Y+17
 6293 21b4 FA89      		ldd r31,Y+18
 6294 21b6 EC54      		subi r30,76
 6295 21b8 FF4F      		sbci r31,-1
 6296 21ba 00C0      		rjmp .L233
 6297               	.L551:
 6298 21bc E989      		ldd r30,Y+17
 6299 21be FA89      		ldd r31,Y+18
 6300 21c0 E854      		subi r30,72
 6301 21c2 FF4F      		sbci r31,-1
 6302 21c4 00C0      		rjmp .L231
 6303               	.L559:
 6304 21c6 E989      		ldd r30,Y+17
 6305 21c8 FA89      		ldd r31,Y+18
 6306 21ca EC55      		subi r30,92
 6307 21cc FF4F      		sbci r31,-1
 6308 21ce 00C0      		rjmp .L229
 6309               	.L558:
 6310 21d0 E989      		ldd r30,Y+17
 6311 21d2 FA89      		ldd r31,Y+18
 6312 21d4 E855      		subi r30,88
 6313 21d6 FF4F      		sbci r31,-1
 6314 21d8 00C0      		rjmp .L231
 6315               	.L319:
 6316 21da 6D85      		ldd r22,Y+13
 6317 21dc 7E85      		ldd r23,Y+14
 6318 21de 8F85      		ldd r24,Y+15
 6319 21e0 9889      		ldd r25,Y+16
 6320 21e2 6D8B      		std Y+21,r22
 6321 21e4 7E8B      		std Y+22,r23
 6322 21e6 8F8B      		std Y+23,r24
 6323 21e8 988F      		std Y+24,r25
 6324 21ea 0C94 0000 		jmp .L211
 6325               	.L505:
 6326 21ee 96E3      		ldi r25,54
 6327 21f0 8916      		cp r8,r25
 6328 21f2 91E0      		ldi r25,1
 6329 21f4 9906      		cpc r9,r25
 6330 21f6 01F4      		brne .+2
 6331 21f8 00C0      		rjmp .L560
 6332 21fa 17E3      		ldi r17,55
 6333 21fc 8116      		cp r8,r17
 6334 21fe 11E0      		ldi r17,1
 6335 2200 9106      		cpc r9,r17
 6336 2202 01F4      		brne .+2
 6337 2204 00C0      		rjmp .L561
 6338 2206 38E3      		ldi r19,56
 6339 2208 8316      		cp r8,r19
 6340 220a 31E0      		ldi r19,1
 6341 220c 9306      		cpc r9,r19
 6342 220e 01F0      		breq .+2
 6343 2210 00C0      		rjmp .L242
 6344 2212 4601      		movw r8,r12
 6345 2214 5701      		movw r10,r14
 6346 2216 40E8      		ldi r20,-128
 6347 2218 B41A      		sub r11,r20
 6348 221a 8114      		cp r8,__zero_reg__
 6349 221c 9104      		cpc r9,__zero_reg__
 6350 221e A104      		cpc r10,__zero_reg__
 6351 2220 51E0      		ldi r21,1
 6352 2222 B506      		cpc r11,r21
 6353 2224 00F0      		brlo .+2
 6354 2226 00C0      		rjmp .L562
 6355               	.L243:
 6356 2228 7501      		movw r14,r10
 6357 222a 6401      		movw r12,r8
 6358 222c 07E0      		ldi r16,lo8(7)
 6359 222e 12E0      		ldi r17,lo8(2)
 6360 2230 00C0      		rjmp .L244
 6361               	.L249:
 6362 2232 40E0      		ldi r20,0
 6363 2234 C701      		movw r24,r14
 6364 2236 B601      		movw r22,r12
 6365 2238 0E94 0000 		call read_buf
 6366 223c 482F      		mov r20,r24
 6367 223e 50E0      		ldi r21,0
 6368 2240 809F      		mul r24,r16
 6369 2242 F001      		movw r30,r0
 6370 2244 819F      		mul r24,r17
 6371 2246 F00D      		add r31,r0
 6372 2248 1124      		clr __zero_reg__
 6373 224a E050      		subi r30,lo8(-(pool+516))
 6374 224c F040      		sbci r31,hi8(-(pool+516))
 6375 224e 8081      		ld r24,Z
 6376 2250 9181      		ldd r25,Z+1
 6377 2252 8E3F      		cpi r24,-2
 6378 2254 6FEF      		ldi r22,-1
 6379 2256 9607      		cpc r25,r22
 6380 2258 00F4      		brsh .L245
 6381 225a 0296      		adiw r24,2
 6382 225c 9183      		std Z+1,r25
 6383 225e 8083      		st Z,r24
 6384               	.L245:
 6385 2260 409F      		mul r20,r16
 6386 2262 9001      		movw r18,r0
 6387 2264 419F      		mul r20,r17
 6388 2266 300D      		add r19,r0
 6389 2268 509F      		mul r21,r16
 6390 226a 300D      		add r19,r0
 6391 226c 1124      		clr r1
 6392 226e 2050      		subi r18,lo8(-(pool))
 6393 2270 3040      		sbci r19,hi8(-(pool))
 6394 2272 D701      		movw r26,r14
 6395 2274 C601      		movw r24,r12
 6396 2276 9170      		andi r25,1
 6397 2278 AA27      		clr r26
 6398 227a BB27      		clr r27
 6399 227c 820F      		add r24,r18
 6400 227e 931F      		adc r25,r19
 6401 2280 DC01      		movw r26,r24
 6402 2282 8C91      		ld r24,X
 6403 2284 8115      		cp r24, __zero_reg__
 6404 2286 01F0      		breq .L250
 6405 2288 BFEF      		ldi r27,-1
 6406 228a CB1A      		sub r12,r27
 6407 228c DB0A      		sbc r13,r27
 6408 228e EB0A      		sbc r14,r27
 6409 2290 FB0A      		sbc r15,r27
 6410               	.L244:
 6411 2292 C114      		cp r12,__zero_reg__
 6412 2294 D104      		cpc r13,__zero_reg__
 6413 2296 E104      		cpc r14,__zero_reg__
 6414 2298 E1E0      		ldi r30,1
 6415 229a FE06      		cpc r15,r30
 6416 229c 00F0      		brlo .L249
 6417               	.L250:
 6418 229e 07E0      		ldi r16,lo8(7)
 6419 22a0 12E0      		ldi r17,lo8(2)
 6420 22a2 8C14      		cp r8,r12
 6421 22a4 9D04      		cpc r9,r13
 6422 22a6 AE04      		cpc r10,r14
 6423 22a8 BF04      		cpc r11,r15
 6424 22aa 01F4      		brne .L247
 6425 22ac 0C94 0000 		jmp .L521
 6426               	.L252:
 6427 22b0 40E0      		ldi r20,0
 6428 22b2 C501      		movw r24,r10
 6429 22b4 B401      		movw r22,r8
 6430 22b6 0E94 0000 		call read_buf
 6431 22ba 282F      		mov r18,r24
 6432 22bc 30E0      		ldi r19,0
 6433 22be 809F      		mul r24,r16
 6434 22c0 F001      		movw r30,r0
 6435 22c2 819F      		mul r24,r17
 6436 22c4 F00D      		add r31,r0
 6437 22c6 1124      		clr __zero_reg__
 6438 22c8 E050      		subi r30,lo8(-(pool+516))
 6439 22ca F040      		sbci r31,hi8(-(pool+516))
 6440 22cc 8081      		ld r24,Z
 6441 22ce 9181      		ldd r25,Z+1
 6442 22d0 8E3F      		cpi r24,-2
 6443 22d2 4FEF      		ldi r20,-1
 6444 22d4 9407      		cpc r25,r20
 6445 22d6 00F4      		brsh .L251
 6446 22d8 0296      		adiw r24,2
 6447 22da 9183      		std Z+1,r25
 6448 22dc 8083      		st Z,r24
 6449               	.L251:
 6450 22de B501      		movw r22,r10
 6451 22e0 A401      		movw r20,r8
 6452 22e2 5170      		andi r21,1
 6453 22e4 6627      		clr r22
 6454 22e6 7727      		clr r23
 6455 22e8 209F      		mul r18,r16
 6456 22ea C001      		movw r24,r0
 6457 22ec 219F      		mul r18,r17
 6458 22ee 900D      		add r25,r0
 6459 22f0 309F      		mul r19,r16
 6460 22f2 900D      		add r25,r0
 6461 22f4 1124      		clr r1
 6462 22f6 8050      		subi r24,lo8(-(pool))
 6463 22f8 9040      		sbci r25,hi8(-(pool))
 6464 22fa 480F      		add r20,r24
 6465 22fc 591F      		adc r21,r25
 6466 22fe DA01      		movw r26,r20
 6467 2300 8C91      		ld r24,X
 6468 2302 0E94 0000 		call UART_putc
 6469 2306 BFEF      		ldi r27,-1
 6470 2308 8B1A      		sub r8,r27
 6471 230a 9B0A      		sbc r9,r27
 6472 230c AB0A      		sbc r10,r27
 6473 230e BB0A      		sbc r11,r27
 6474               	.L247:
 6475 2310 C814      		cp r12,r8
 6476 2312 D904      		cpc r13,r9
 6477 2314 EA04      		cpc r14,r10
 6478 2316 FB04      		cpc r15,r11
 6479 2318 00F4      		brsh .L252
 6480 231a 00C0      		rjmp .L253
 6481               	.L230:
 6482 231c 6D8D      		ldd r22,Y+29
 6483 231e 7E8D      		ldd r23,Y+30
 6484 2320 8F8D      		ldd r24,Y+31
 6485 2322 98A1      		ldd r25,Y+32
 6486 2324 6630      		cpi r22,6
 6487 2326 7105      		cpc r23,__zero_reg__
 6488 2328 8105      		cpc r24,__zero_reg__
 6489 232a 9105      		cpc r25,__zero_reg__
 6490 232c 01F0      		breq .+2
 6491 232e 00C0      		rjmp .L219
 6492 2330 00C0      		rjmp .L218
 6493               	.L538:
 6494 2332 8D89      		ldd r24,Y+21
 6495 2334 0E94 0000 		call UART_putc
 6496 2338 0C94 0000 		jmp .L144
 6497               	.L317:
 6498 233c 8D80      		ldd r8,Y+5
 6499 233e 9E80      		ldd r9,Y+6
 6500 2340 AF80      		ldd r10,Y+7
 6501 2342 B884      		ldd r11,Y+8
 6502 2344 4D8D      		ldd r20,Y+29
 6503 2346 5E8D      		ldd r21,Y+30
 6504 2348 6F8D      		ldd r22,Y+31
 6505 234a 78A1      		ldd r23,Y+32
 6506 234c 4D83      		std Y+5,r20
 6507 234e 5E83      		std Y+6,r21
 6508 2350 6F83      		std Y+7,r22
 6509 2352 7887      		std Y+8,r23
 6510 2354 0C94 0000 		jmp .L291
 6511               	.L242:
 6512 2358 E9E3      		ldi r30,57
 6513 235a 8E16      		cp r8,r30
 6514 235c E1E0      		ldi r30,1
 6515 235e 9E06      		cpc r9,r30
 6516 2360 01F0      		breq .+4
 6517 2362 0C94 0000 		jmp .L521
 6518 2366 8C2D      		mov r24,r12
 6519 2368 0E94 0000 		call UART_putc
 6520 236c 0C94 0000 		jmp .L521
 6521               	.L228:
 6522 2370 8D8D      		ldd r24,Y+29
 6523 2372 9E8D      		ldd r25,Y+30
 6524 2374 AF8D      		ldd r26,Y+31
 6525 2376 B8A1      		ldd r27,Y+32
 6526 2378 0697      		sbiw r24,6
 6527 237a A105      		cpc r26,__zero_reg__
 6528 237c B105      		cpc r27,__zero_reg__
 6529 237e 01F0      		breq .+2
 6530 2380 00C0      		rjmp .L219
 6531 2382 00C0      		rjmp .L218
 6532               	.L314:
 6533 2384 8D80      		ldd r8,Y+5
 6534 2386 9E80      		ldd r9,Y+6
 6535 2388 AF80      		ldd r10,Y+7
 6536 238a B884      		ldd r11,Y+8
 6537 238c 8D8D      		ldd r24,Y+29
 6538 238e 9E8D      		ldd r25,Y+30
 6539 2390 AF8D      		ldd r26,Y+31
 6540 2392 B8A1      		ldd r27,Y+32
 6541 2394 8D83      		std Y+5,r24
 6542 2396 9E83      		std Y+6,r25
 6543 2398 AF83      		std Y+7,r26
 6544 239a B887      		std Y+8,r27
 6545 239c EE24      		clr r14
 6546 239e EA94      		dec r14
 6547 23a0 FE2C      		mov r15,r14
 6548 23a2 8701      		movw r16,r14
 6549 23a4 ED8A      		std Y+21,r14
 6550 23a6 FE8A      		std Y+22,r15
 6551 23a8 0F8B      		std Y+23,r16
 6552 23aa 188F      		std Y+24,r17
 6553 23ac 0C94 0000 		jmp .L291
 6554               	.L315:
 6555 23b0 8D80      		ldd r8,Y+5
 6556 23b2 9E80      		ldd r9,Y+6
 6557 23b4 AF80      		ldd r10,Y+7
 6558 23b6 B884      		ldd r11,Y+8
 6559 23b8 0D8D      		ldd r16,Y+29
 6560 23ba 1E8D      		ldd r17,Y+30
 6561 23bc 2F8D      		ldd r18,Y+31
 6562 23be 38A1      		ldd r19,Y+32
 6563 23c0 0D83      		std Y+5,r16
 6564 23c2 1E83      		std Y+6,r17
 6565 23c4 2F83      		std Y+7,r18
 6566 23c6 3887      		std Y+8,r19
 6567 23c8 0C94 0000 		jmp .L291
 6568               	.L312:
 6569 23cc 8D80      		ldd r8,Y+5
 6570 23ce 9E80      		ldd r9,Y+6
 6571 23d0 AF80      		ldd r10,Y+7
 6572 23d2 B884      		ldd r11,Y+8
 6573 23d4 2D8D      		ldd r18,Y+29
 6574 23d6 3E8D      		ldd r19,Y+30
 6575 23d8 4F8D      		ldd r20,Y+31
 6576 23da 58A1      		ldd r21,Y+32
 6577 23dc 2D83      		std Y+5,r18
 6578 23de 3E83      		std Y+6,r19
 6579 23e0 4F83      		std Y+7,r20
 6580 23e2 5887      		std Y+8,r21
 6581 23e4 4FEF      		ldi r20,lo8(-1)
 6582 23e6 5FEF      		ldi r21,lo8(-1)
 6583 23e8 BA01      		movw r22,r20
 6584 23ea 4D8B      		std Y+21,r20
 6585 23ec 5E8B      		std Y+22,r21
 6586 23ee 6F8B      		std Y+23,r22
 6587 23f0 788F      		std Y+24,r23
 6588 23f2 0C94 0000 		jmp .L291
 6589               	.L549:
 6590 23f6 07E0      		ldi r16,lo8(7)
 6591 23f8 12E0      		ldi r17,lo8(2)
 6592 23fa 209F      		mul r18,r16
 6593 23fc C001      		movw r24,r0
 6594 23fe 219F      		mul r18,r17
 6595 2400 900D      		add r25,r0
 6596 2402 1124      		clr __zero_reg__
 6597 2404 FC01      		movw r30,r24
 6598 2406 E050      		subi r30,lo8(-(pool+511))
 6599 2408 F040      		sbci r31,hi8(-(pool+511))
 6600 240a ED88      		ldd r14,Y+21
 6601 240c E082      		st Z,r14
 6602 240e 8050      		subi r24,lo8(-(pool+518))
 6603 2410 9040      		sbci r25,hi8(-(pool+518))
 6604 2412 FF24      		clr r15
 6605 2414 F394      		inc r15
 6606 2416 DC01      		movw r26,r24
 6607 2418 FC92      		st X,r15
 6608 241a 41E0      		ldi r20,lo8(1)
 6609 241c C501      		movw r24,r10
 6610 241e B401      		movw r22,r8
 6611 2420 0E94 0000 		call read_buf
 6612 2424 809F      		mul r24,r16
 6613 2426 F001      		movw r30,r0
 6614 2428 819F      		mul r24,r17
 6615 242a F00D      		add r31,r0
 6616 242c 1124      		clr __zero_reg__
 6617 242e E050      		subi r30,lo8(-(pool))
 6618 2430 F040      		sbci r31,hi8(-(pool))
 6619 2432 8D8C      		ldd r8,Y+29
 6620 2434 8082      		st Z,r8
 6621 2436 DF01      		movw r26,r30
 6622 2438 AA5F      		subi r26,-6
 6623 243a BD4F      		sbci r27,-3
 6624 243c FC92      		st X,r15
 6625 243e EC5F      		subi r30,-4
 6626 2440 FD4F      		sbci r31,-3
 6627 2442 8081      		ld r24,Z
 6628 2444 9181      		ldd r25,Z+1
 6629 2446 8F3F      		cpi r24,-1
 6630 2448 9807      		cpc r25,r24
 6631 244a 01F4      		brne .+4
 6632 244c 0C94 0000 		jmp .L144
 6633 2450 0C94 0000 		jmp .L523
 6634               	.L561:
 6635 2454 C701      		movw r24,r14
 6636 2456 B601      		movw r22,r12
 6637 2458 0E94 0000 		call UART_puthex32
 6638 245c 8D80      		ldd r8,Y+5
 6639 245e 9E80      		ldd r9,Y+6
 6640 2460 AF80      		ldd r10,Y+7
 6641 2462 B884      		ldd r11,Y+8
 6642 2464 A501      		movw r20,r10
 6643 2466 9401      		movw r18,r8
 6644 2468 2C5F      		subi r18,-4
 6645 246a 3F4F      		sbci r19,-1
 6646 246c 4F4F      		sbci r20,-1
 6647 246e 5F4F      		sbci r21,-1
 6648 2470 2D83      		std Y+5,r18
 6649 2472 3E83      		std Y+6,r19
 6650 2474 4F83      		std Y+7,r20
 6651 2476 5887      		std Y+8,r21
 6652 2478 0C94 0000 		jmp .L291
 6653               	.L560:
 6654 247c C701      		movw r24,r14
 6655 247e B601      		movw r22,r12
 6656 2480 0E94 0000 		call UART_putdec32
 6657 2484 8D80      		ldd r8,Y+5
 6658 2486 9E80      		ldd r9,Y+6
 6659 2488 AF80      		ldd r10,Y+7
 6660 248a B884      		ldd r11,Y+8
 6661 248c 9501      		movw r18,r10
 6662 248e 8401      		movw r16,r8
 6663 2490 0C5F      		subi r16,-4
 6664 2492 1F4F      		sbci r17,-1
 6665 2494 2F4F      		sbci r18,-1
 6666 2496 3F4F      		sbci r19,-1
 6667 2498 0D83      		std Y+5,r16
 6668 249a 1E83      		std Y+6,r17
 6669 249c 2F83      		std Y+7,r18
 6670 249e 3887      		std Y+8,r19
 6671 24a0 0C94 0000 		jmp .L291
 6672               	.L555:
 6673 24a4 0E94 0000 		call UART_available
 6674 24a8 8115      		cp r24, __zero_reg__
 6675 24aa 01F4      		brne .+2
 6676 24ac 00C0      		rjmp .L309
 6677 24ae 0E94 0000 		call UART_getc
 6678               	.L519:
 6679 24b2 882E      		mov r8,r24
 6680 24b4 912C      		mov r9,__zero_reg__
 6681 24b6 A12C      		mov r10,__zero_reg__
 6682 24b8 B12C      		mov r11,__zero_reg__
 6683 24ba 8D8A      		std Y+21,r8
 6684 24bc 9E8A      		std Y+22,r9
 6685 24be AF8A      		std Y+23,r10
 6686 24c0 B88E      		std Y+24,r11
 6687 24c2 8D80      		ldd r8,Y+5
 6688 24c4 9E80      		ldd r9,Y+6
 6689 24c6 AF80      		ldd r10,Y+7
 6690 24c8 B884      		ldd r11,Y+8
 6691 24ca CD82      		std Y+5,r12
 6692 24cc DE82      		std Y+6,r13
 6693 24ce EF82      		std Y+7,r14
 6694 24d0 F886      		std Y+8,r15
 6695 24d2 0C94 0000 		jmp .L291
 6696               	.L554:
 6697 24d6 0E94 0000 		call UART_available
 6698 24da 8066      		ori r24,lo8(96)
 6699 24dc 00C0      		rjmp .L519
 6700               	.L543:
 6701 24de E989      		ldd r30,Y+17
 6702 24e0 FA89      		ldd r31,Y+18
 6703 24e2 EC57      		subi r30,124
 6704 24e4 FF4F      		sbci r31,-1
 6705 24e6 8081      		ld r24,Z
 6706 24e8 9181      		ldd r25,Z+1
 6707 24ea A281      		ldd r26,Z+2
 6708 24ec B381      		ldd r27,Z+3
 6709 24ee 8860      		ori r24,8
 6710 24f0 8083      		st Z,r24
 6711 24f2 9183      		std Z+1,r25
 6712 24f4 A283      		std Z+2,r26
 6713 24f6 B383      		std Z+3,r27
 6714 24f8 E9A1      		ldd r30,Y+33
 6715 24fa FAA1      		ldd r31,Y+34
 6716 24fc 8081      		ld r24,Z
 6717 24fe 9181      		ldd r25,Z+1
 6718 2500 A281      		ldd r26,Z+2
 6719 2502 B381      		ldd r27,Z+3
 6720 2504 8460      		ori r24,4
 6721 2506 8083      		st Z,r24
 6722 2508 9183      		std Z+1,r25
 6723 250a A283      		std Z+2,r26
 6724 250c B383      		std Z+3,r27
 6725 250e 8D81      		ldd r24,Y+5
 6726 2510 9E81      		ldd r25,Y+6
 6727 2512 AF81      		ldd r26,Y+7
 6728 2514 B885      		ldd r27,Y+8
 6729 2516 0496      		adiw r24,4
 6730 2518 A11D      		adc r26,__zero_reg__
 6731 251a B11D      		adc r27,__zero_reg__
 6732 251c EBA5      		ldd r30,Y+43
 6733 251e FCA5      		ldd r31,Y+44
 6734 2520 8083      		st Z,r24
 6735 2522 9183      		std Z+1,r25
 6736 2524 A283      		std Z+2,r26
 6737 2526 B383      		std Z+3,r27
 6738 2528 0C94 0000 		jmp .L123
 6739               	.L562:
 6740 252c 80E0      		ldi r24,lo8(__c.31)
 6741 252e 90E0      		ldi r25,hi8(__c.31)
 6742 2530 0E94 0000 		call UART_puts_p
 6743 2534 C701      		movw r24,r14
 6744 2536 B601      		movw r22,r12
 6745 2538 0E94 0000 		call UART_puthex32
 6746 253c 80E0      		ldi r24,lo8(__c.30)
 6747 253e 90E0      		ldi r25,hi8(__c.30)
 6748 2540 0E94 0000 		call UART_puts_p
 6749 2544 00C0      		rjmp .L243
 6750               	.L557:
 6751 2546 9FEF      		ldi r25,-1
 6752 2548 8916      		cp r8,r25
 6753 254a 9906      		cpc r9,r25
 6754 254c A906      		cpc r10,r25
 6755 254e B906      		cpc r11,r25
 6756 2550 01F0      		breq .+2
 6757 2552 00C0      		rjmp .L183
 6758 2554 8D80      		ldd r8,Y+5
 6759 2556 9E80      		ldd r9,Y+6
 6760 2558 AF80      		ldd r10,Y+7
 6761 255a B884      		ldd r11,Y+8
 6762 255c 6D8D      		ldd r22,Y+29
 6763 255e 7E8D      		ldd r23,Y+30
 6764 2560 8F8D      		ldd r24,Y+31
 6765 2562 98A1      		ldd r25,Y+32
 6766 2564 6D83      		std Y+5,r22
 6767 2566 7E83      		std Y+6,r23
 6768 2568 8F83      		std Y+7,r24
 6769 256a 9887      		std Y+8,r25
 6770 256c 0C94 0000 		jmp .L291
 6771               	.L556:
 6772 2570 7FEF      		ldi r23,-1
 6773 2572 8716      		cp r8,r23
 6774 2574 9706      		cpc r9,r23
 6775 2576 A706      		cpc r10,r23
 6776 2578 B706      		cpc r11,r23
 6777 257a 01F0      		breq .+2
 6778 257c 00C0      		rjmp .L184
 6779 257e 8D80      		ldd r8,Y+5
 6780 2580 9E80      		ldd r9,Y+6
 6781 2582 AF80      		ldd r10,Y+7
 6782 2584 B884      		ldd r11,Y+8
 6783 2586 2D8D      		ldd r18,Y+29
 6784 2588 3E8D      		ldd r19,Y+30
 6785 258a 4F8D      		ldd r20,Y+31
 6786 258c 58A1      		ldd r21,Y+32
 6787 258e 2D83      		std Y+5,r18
 6788 2590 3E83      		std Y+6,r19
 6789 2592 4F83      		std Y+7,r20
 6790 2594 5887      		std Y+8,r21
 6791 2596 1D8A      		std Y+21,__zero_reg__
 6792 2598 1E8A      		std Y+22,__zero_reg__
 6793 259a 1F8A      		std Y+23,__zero_reg__
 6794 259c 188E      		std Y+24,__zero_reg__
 6795 259e 0C94 0000 		jmp .L291
 6796               	.L537:
 6797 25a2 8D89      		ldd r24,Y+21
 6798 25a4 9D8D      		ldd r25,Y+29
 6799 25a6 4D81      		ldd r20,Y+5
 6800 25a8 5E81      		ldd r21,Y+6
 6801 25aa 6F81      		ldd r22,Y+7
 6802 25ac 7885      		ldd r23,Y+8
 6803 25ae 4C5F      		subi r20,-4
 6804 25b0 5F4F      		sbci r21,-1
 6805 25b2 6F4F      		sbci r22,-1
 6806 25b4 7F4F      		sbci r23,-1
 6807 25b6 ABA5      		ldd r26,Y+43
 6808 25b8 BCA5      		ldd r27,Y+44
 6809 25ba 4D93      		st X+,r20
 6810 25bc 5D93      		st X+,r21
 6811 25be 6D93      		st X+,r22
 6812 25c0 7C93      		st X,r23
 6813 25c2 1397      		sbiw r26,3
 6814 25c4 8130      		cpi r24,1
 6815 25c6 9105      		cpc r25,__zero_reg__
 6816 25c8 01F4      		brne .+4
 6817 25ca 0C94 0000 		jmp .L123
 6818 25ce 8535      		cpi r24,85
 6819 25d0 9807      		cpc r25,r24
 6820 25d2 01F4      		brne .L563
 6821 25d4 80E0      		ldi r24,lo8(__c.35)
 6822 25d6 90E0      		ldi r25,hi8(__c.35)
 6823 25d8 0E94 0000 		call UART_puts_p
 6824               	.L288:
 6825 25dc 00C0      		rjmp .L288
 6826               	.L563:
 6827 25de 892B      		or r24,r25
 6828 25e0 01F4      		brne .+4
 6829 25e2 0C94 0000 		jmp .L286
 6830 25e6 80E0      		ldi r24,lo8(__c.34)
 6831 25e8 90E0      		ldi r25,hi8(__c.34)
 6832 25ea 0E94 0000 		call UART_puts_p
 6833 25ee 0C94 0000 		jmp .L286
 6834               	.L322:
 6835 25f2 8FEF      		ldi r24,lo8(-1)
 6836 25f4 9FEF      		ldi r25,lo8(-1)
 6837 25f6 DC01      		movw r26,r24
 6838 25f8 0C94 0000 		jmp .L212
 6840               		.section	.progmem.data,"a",@progbits
 6843               	__c.0:
 6844 0000 0D0A 3D3D 		.string	"\r\n==============================================================================\r\n"
 6844      3D3D 3D3D 
 6844      3D3D 3D3D 
 6844      3D3D 3D3D 
 6844      3D3D 3D3D 
 6847               	__c.1:
 6848 0053 0D0A 6578 		.string	"\r\nextraflags: "
 6848      7472 6166 
 6848      6C61 6773 
 6848      3A20 00
 6851               	__c.2:
 6852 0062 0D0A 6D63 		.string	"\r\nmcause: "
 6852      6175 7365 
 6852      3A20 00
 6855               	__c.3:
 6856 006d 0D0A 6D74 		.string	"\r\nmtval: "
 6856      7661 6C3A 
 6856      2000 
 6859               	__c.4:
 6860 0077 0D0A 6D65 		.string	"\r\nmepc: "
 6860      7063 3A20 
 6860      00
 6863               	__c.5:
 6864 0080 0D0A 6D69 		.string	"\r\nmip: "
 6864      703A 2000 
 6867               	__c.6:
 6868 0088 0D0A 6D69 		.string	"\r\nmie: "
 6868      653A 2000 
 6871               	__c.7:
 6872 0090 0D0A 6D74 		.string	"\r\nmtvec: "
 6872      7665 633A 
 6872      2000 
 6875               	__c.8:
 6876 009a 0D0A 6D73 		.string	"\r\nmscratch: "
 6876      6372 6174 
 6876      6368 3A20 
 6876      00
 6879               	__c.9:
 6880 00a7 0D0A 7469 		.string	"\r\ntimermatchh: "
 6880      6D65 726D 
 6880      6174 6368 
 6880      683A 2000 
 6883               	__c.10:
 6884 00b7 0D0A 7469 		.string	"\r\ntimermatchl: "
 6884      6D65 726D 
 6884      6174 6368 
 6884      6C3A 2000 
 6887               	__c.11:
 6888 00c7 0D0A 7469 		.string	"\r\ntimerh: "
 6888      6D65 7268 
 6888      3A20 00
 6891               	__c.12:
 6892 00d2 0D0A 7469 		.string	"\r\ntimerl: "
 6892      6D65 726C 
 6892      3A20 00
 6895               	__c.13:
 6896 00dd 0D0A 6379 		.string	"\r\ncycleh: "
 6896      636C 6568 
 6896      3A20 00
 6899               	__c.14:
 6900 00e8 0D0A 6379 		.string	"\r\ncyclel: "
 6900      636C 656C 
 6900      3A20 00
 6903               	__c.15:
 6904 00f3 0D0A 6D73 		.string	"\r\nmstatus: "
 6904      7461 7475 
 6904      733A 2000 
 6907               	__c.16:
 6908 00ff 7063 3A20 		.string	"pc: "
 6908      00
 6911               	__c.17:
 6912 0104 0D0A 00   		.string	"\r\n"
 6915               	__c.18:
 6916 0107 2000      		.string	" "
 6919               	__c.19:
 6920 0109 2000      		.string	" "
 6923               	__c.20:
 6924 010b 2000      		.string	" "
 6927               	__c.21:
 6928 010d 4475 6D70 		.string	"Dumping emulator state:\r\nRegisters x0 - x31:\r\n"
 6928      696E 6720 
 6928      656D 756C 
 6928      6174 6F72 
 6928      2073 7461 
 6931               	__c.22:
 6932 013c 3D3D 3D3D 		.string	"==============================================================================\r\n"
 6932      3D3D 3D3D 
 6932      3D3D 3D3D 
 6932      3D3D 3D3D 
 6932      3D3D 3D3D 
 6935               	__c.23:
 6936 018d 6361 6368 		.string	"cache_read: failed 10 times in a row. Halting\r\n"
 6936      655F 7265 
 6936      6164 3A20 
 6936      6661 696C 
 6936      6564 2031 
 6939               	__c.24:
 6940 01bd 2065 7272 		.string	" error, error token:\r\n"
 6940      6F72 2C20 
 6940      6572 726F 
 6940      7220 746F 
 6940      6B65 6E3A 
 6943               	__c.25:
 6944 01d4 6361 6368 		.string	"cache_read @ "
 6944      655F 7265 
 6944      6164 2040 
 6944      2000 
 6947               	__c.26:
 6948 01e2 6361 6368 		.string	"cache_write: failed 10 times in a row. Halting\r\n"
 6948      655F 7772 
 6948      6974 653A 
 6948      2066 6169 
 6948      6C65 6420 
 6951               	__c.27:
 6952 0213 2065 7272 		.string	" error, error token:\r\n"
 6952      6F72 2C20 
 6952      6572 726F 
 6952      7220 746F 
 6952      6B65 6E3A 
 6955               	__c.28:
 6956 022a 6361 6368 		.string	"cache_write @ "
 6956      655F 7772 
 6956      6974 6520 
 6956      4020 00
 6957               		.local	s.29
 6958               		.comm	s.29,4,1
 6961               	__c.30:
 6962 0239 290D 0A00 		.string	")\r\n"
 6965               	__c.31:
 6966 023d 4445 4255 		.string	"DEBUG PASSED INVALID PTR ("
 6966      4720 5041 
 6966      5353 4544 
 6966      2049 4E56 
 6966      414C 4944 
 6969               	__c.32:
 6970 0258 0D0A 00   		.string	"\r\n"
 6973               	__c.34:
 6974 025b 556E 6B6E 		.string	"Unknown failure\r\n"
 6974      6F77 6E20 
 6974      6661 696C 
 6974      7572 650D 
 6974      0A00 
 6977               	__c.35:
 6978 026d 504F 5745 		.string	"POWEROFF\r\n"
 6978      524F 4646 
 6978      0D0A 00
 6981               	__c.36:
 6982 0278 4231 2069 		.string	"B1 is set to HIGH, emulator resume\r\n"
 6982      7320 7365 
 6982      7420 746F 
 6982      2048 4947 
 6982      482C 2065 
 6985               	__c.37:
 6986 029d 4475 6D70 		.string	"Dump completed. Emulator will continue when B1 is set back to HIGH\r\n"
 6986      2063 6F6D 
 6986      706C 6574 
 6986      6564 2E20 
 6986      456D 756C 
 6989               	__c.38:
 6990 02e2 0D0A 00   		.string	"\r\n"
 6993               	__c.39:
 6994 02e5 2F00      		.string	"/"
 6997               	__c.40:
 6998 02e7 3B20 6463 		.string	"; dcache hit/miss: "
 6998      6163 6865 
 6998      2068 6974 
 6998      2F6D 6973 
 6998      733A 2000 
 7001               	__c.41:
 7002 02fb 2F00      		.string	"/"
 7005               	__c.42:
 7006 02fd 6963 6163 		.string	"icache hit/miss: "
 7006      6865 2068 
 7006      6974 2F6D 
 7006      6973 733A 
 7006      2000 
 7009               	__c.43:
 7010 030f 2062 7974 		.string	" bytes\r\n"
 7010      6573 0D0A 
 7010      00
 7013               	__c.44:
 7014 0318 4375 7272 		.string	"Current AVR free memory: "
 7014      656E 7420 
 7014      4156 5220 
 7014      6672 6565 
 7014      206D 656D 
 7017               	__c.45:
 7018 0332 0D0A 00   		.string	"\r\n"
 7021               	__c.46:
 7022 0335 6D73 2C20 		.string	"ms, dcycle="
 7022      6463 7963 
 7022      6C65 3D00 
 7025               	__c.47:
 7026 0341 2048 7A2C 		.string	" Hz, dtime="
 7026      2064 7469 
 7026      6D65 3D00 
 7029               	__c.48:
 7030 034d 4566 6665 		.string	"Effective emulated speed: "
 7030      6374 6976 
 7030      6520 656D 
 7030      756C 6174 
 7030      6564 2073 
 7033               	__c.49:
 7034 0368 2062 7974 		.string	" bytes\r\n"
 7034      6573 0D0A 
 7034      00
 7037               	__c.50:
 7038 0371 4375 7272 		.string	"Current AVR free memory: "
 7038      656E 7420 
 7038      4156 5220 
 7038      6672 6565 
 7038      206D 656D 
 7041               	__c.51:
 7042 038b 5344 2063 		.string	"SD card initialized successfully!\r\n"
 7042      6172 6420 
 7042      696E 6974 
 7042      6961 6C69 
 7042      7A65 6420 
 7045               	__c.52:
 7046 03af 4572 726F 		.string	"Error initializaing SD card\r\n"
 7046      7220 696E 
 7046      6974 6961 
 7046      6C69 7A61 
 7046      696E 6720 
 7049               	__c.53:
 7050 03cd 6172 7633 		.string	"arv32-opt: mini-rv32ima on Arduino UNO\r\n"
 7050      322D 6F70 
 7050      743A 206D 
 7050      696E 692D 
 7050      7276 3332 
 7053               	__c.54:
 7054 03f6 696E 6974 		.string	"init_cache: failed 10 times in a row. Halting\r\n"
 7054      5F63 6163 
 7054      6865 3A20 
 7054      6661 696C 
 7054      6564 2031 
 7057               	__c.55:
 7058 0426 2065 7272 		.string	" error, error token:\r\n"
 7058      6F72 2C20 
 7058      6572 726F 
 7058      7220 746F 
 7058      6B65 6E3A 
 7061               	__c.56:
 7062 043d 696E 6974 		.string	"init_cache #"
 7062      5F63 6163 
 7062      6865 2023 
 7062      00
 7063               	.global	last_ms
 7064               		.section .bss
 7067               	last_ms:
 7068 0000 0000 0000 		.zero	4
 7069               	.global	timer1_millis
 7072               	timer1_millis:
 7073 0004 0000 0000 		.zero	4
 7074               	.global	RAM_SIZE
 7075               		.section	.rodata
 7078               	RAM_SIZE:
 7079 0000 00        		.byte	0
 7080 0001 00        		.byte	0
 7081 0002 00        		.byte	0
 7082 0003 01        		.byte	1
 7083               	.global	last_cyclel
 7084               		.section .bss
 7087               	last_cyclel:
 7088 0008 0000 0000 		.zero	4
 7089               	.global	dcache_miss
 7092               	dcache_miss:
 7093 000c 0000 0000 		.zero	4
 7094               	.global	dcache_hit
 7097               	dcache_hit:
 7098 0010 0000 0000 		.zero	4
 7099               	.global	icache_miss
 7102               	icache_miss:
 7103 0014 0000 0000 		.zero	4
 7104               	.global	icache_hit
 7107               	icache_hit:
 7108 0018 0000 0000 		.zero	4
 7109               	.global	pool
 7112               	pool:
 7113 001c 0000 0000 		.zero	1557
 7113      0000 0000 
 7113      0000 0000 
 7113      0000 0000 
 7113      0000 0000 
 7114               	.global	core
 7117               	core:
 7118 0631 0000      		.zero	2
 7119               	.global	lastTime
 7122               	lastTime:
 7123 0633 0000 0000 		.zero	8
 7123      0000 0000 
 7124               	.global	fail_on_all_faults
 7127               	fail_on_all_faults:
 7128 063b 0000      		.zero	2
 7129               		.ident	"GCC: (GNU) 13.2.0"
 7130               	.global __do_copy_data
 7131               	.global __do_clear_bss
DEFINED SYMBOLS
                            *ABS*:00000000 main.c
     /tmp/cchnXiHP.s:2      *ABS*:0000003e __SP_H__
     /tmp/cchnXiHP.s:3      *ABS*:0000003d __SP_L__
     /tmp/cchnXiHP.s:4      *ABS*:0000003f __SREG__
     /tmp/cchnXiHP.s:5      *ABS*:0000003b __RAMPZ__
     /tmp/cchnXiHP.s:6      *ABS*:00000000 __tmp_reg__
     /tmp/cchnXiHP.s:7      *ABS*:00000001 __zero_reg__
     /tmp/cchnXiHP.s:11     .text:00000000 __vector_17
                            *ABS*:00000003 __gcc_isr.n_pushed.001
     /tmp/cchnXiHP.s:7072   .bss:00000004 timer1_millis
     /tmp/cchnXiHP.s:41     .text:00000046 millis
     /tmp/cchnXiHP.s:65     .text:0000005c init_cache
     /tmp/cchnXiHP.s:7112   .bss:0000001c pool
     /tmp/cchnXiHP.s:116    .text:000000b8 L0
     /tmp/cchnXiHP.s:7061   .progmem.data:0000043d __c.56
     /tmp/cchnXiHP.s:7057   .progmem.data:00000426 __c.55
     /tmp/cchnXiHP.s:7053   .progmem.data:000003f6 __c.54
     /tmp/cchnXiHP.s:197    .text:00000156 addage
     /tmp/cchnXiHP.s:230    .text:00000184 dump_state
     /tmp/cchnXiHP.s:6931   .progmem.data:0000013c __c.22
     /tmp/cchnXiHP.s:6927   .progmem.data:0000010d __c.21
     /tmp/cchnXiHP.s:7117   .bss:00000631 core
     /tmp/cchnXiHP.s:6923   .progmem.data:0000010b __c.20
     /tmp/cchnXiHP.s:6919   .progmem.data:00000109 __c.19
     /tmp/cchnXiHP.s:6915   .progmem.data:00000107 __c.18
     /tmp/cchnXiHP.s:6911   .progmem.data:00000104 __c.17
     /tmp/cchnXiHP.s:320    .text:00000252 L0
     /tmp/cchnXiHP.s:6907   .progmem.data:000000ff __c.16
     /tmp/cchnXiHP.s:6903   .progmem.data:000000f3 __c.15
     /tmp/cchnXiHP.s:6899   .progmem.data:000000e8 __c.14
     /tmp/cchnXiHP.s:6895   .progmem.data:000000dd __c.13
     /tmp/cchnXiHP.s:6891   .progmem.data:000000d2 __c.12
     /tmp/cchnXiHP.s:6887   .progmem.data:000000c7 __c.11
     /tmp/cchnXiHP.s:6883   .progmem.data:000000b7 __c.10
     /tmp/cchnXiHP.s:6879   .progmem.data:000000a7 __c.9
     /tmp/cchnXiHP.s:6875   .progmem.data:0000009a __c.8
     /tmp/cchnXiHP.s:6871   .progmem.data:00000090 __c.7
     /tmp/cchnXiHP.s:6867   .progmem.data:00000088 __c.6
     /tmp/cchnXiHP.s:6863   .progmem.data:00000080 __c.5
     /tmp/cchnXiHP.s:6859   .progmem.data:00000077 __c.4
     /tmp/cchnXiHP.s:6855   .progmem.data:0000006d __c.3
     /tmp/cchnXiHP.s:6851   .progmem.data:00000062 __c.2
     /tmp/cchnXiHP.s:6847   .progmem.data:00000053 __c.1
     /tmp/cchnXiHP.s:6843   .progmem.data:00000000 __c.0
     /tmp/cchnXiHP.s:523    .text:00000460 read_buf
                             .bss:0000063d s.29
     /tmp/cchnXiHP.s:578    .text:000004d2 L0
     /tmp/cchnXiHP.s:588    .text:000004ee L0
     /tmp/cchnXiHP.s:598    .text:0000050a L0
     /tmp/cchnXiHP.s:606    .text:00000522 L0
     /tmp/cchnXiHP.s:610    .text:0000052a L0
     /tmp/cchnXiHP.s:614    .text:00000532 L0
     /tmp/cchnXiHP.s:643    .text:0000056a L0
     /tmp/cchnXiHP.s:670    .text:0000059e L0
     /tmp/cchnXiHP.s:7102   .bss:00000014 icache_miss
     /tmp/cchnXiHP.s:713    .text:000005fe L0
     /tmp/cchnXiHP.s:6943   .progmem.data:000001d4 __c.25
     /tmp/cchnXiHP.s:6939   .progmem.data:000001bd __c.24
     /tmp/cchnXiHP.s:6935   .progmem.data:0000018d __c.23
     /tmp/cchnXiHP.s:7107   .bss:00000018 icache_hit
     /tmp/cchnXiHP.s:7097   .bss:00000010 dcache_hit
     /tmp/cchnXiHP.s:828    .text:0000071a L0
     /tmp/cchnXiHP.s:840    .text:00000730 L0
     /tmp/cchnXiHP.s:886    .text:00000784 L0
     /tmp/cchnXiHP.s:899    .text:0000079e L0
     /tmp/cchnXiHP.s:902    .text:000007a4 L0
     /tmp/cchnXiHP.s:6955   .progmem.data:0000022a __c.28
     /tmp/cchnXiHP.s:6951   .progmem.data:00000213 __c.27
     /tmp/cchnXiHP.s:6947   .progmem.data:000001e2 __c.26
     /tmp/cchnXiHP.s:7092   .bss:0000000c dcache_miss
     /tmp/cchnXiHP.s:980    .text:00000862 L0
     /tmp/cchnXiHP.s:985    .text:0000086e L0
     /tmp/cchnXiHP.s:1004   .text:00000896 load4
     /tmp/cchnXiHP.s:1017   .text:000008b0 L0
     /tmp/cchnXiHP.s:1145   .text:000009aa L0
     /tmp/cchnXiHP.s:1153   .text:000009b4 store4.isra.0
     /tmp/cchnXiHP.s:1169   .text:000009d4 L0
     /tmp/cchnXiHP.s:1313   .text:00000aee L0
     /tmp/cchnXiHP.s:1321   .text:00000af8 load2
     /tmp/cchnXiHP.s:1372   .text:00000b64 L0
     /tmp/cchnXiHP.s:1382   .text:00000b80 L0
     /tmp/cchnXiHP.s:1392   .text:00000b9c L0
     /tmp/cchnXiHP.s:1405   .text:00000bbe L0
     /tmp/cchnXiHP.s:1411   .text:00000bce L0
     /tmp/cchnXiHP.s:1436   .text:00000bfc L0
     /tmp/cchnXiHP.s:1487   .text:00000c6e L0
     /tmp/cchnXiHP.s:1541   .text:00000cfe L0
     /tmp/cchnXiHP.s:1642   .text:00000dba L0
     /tmp/cchnXiHP.s:1655   .text:00000dd4 L0
     /tmp/cchnXiHP.s:1658   .text:00000dda L0
     /tmp/cchnXiHP.s:1716   .text:00000e58 L0
     /tmp/cchnXiHP.s:1746   .text.startup:00000000 main
     /tmp/cchnXiHP.s:7049   .progmem.data:000003cd __c.53
     /tmp/cchnXiHP.s:7045   .progmem.data:000003af __c.52
     /tmp/cchnXiHP.s:7041   .progmem.data:0000038b __c.51
     /tmp/cchnXiHP.s:7037   .progmem.data:00000371 __c.50
     /tmp/cchnXiHP.s:1865   .text.startup:00000106 L0
     /tmp/cchnXiHP.s:7033   .progmem.data:00000368 __c.49
     /tmp/cchnXiHP.s:7122   .bss:00000633 lastTime
     /tmp/cchnXiHP.s:2032   .text.startup:0000027a L0
     /tmp/cchnXiHP.s:2038   .text.startup:00000286 L0
     /tmp/cchnXiHP.s:2065   .text.startup:000002ba L0
     /tmp/cchnXiHP.s:2072   .text.startup:000002c8 L0
     /tmp/cchnXiHP.s:2140   .text.startup:0000034e L0
     /tmp/cchnXiHP.s:2158   .text.startup:00000370 L0
     /tmp/cchnXiHP.s:2247   .text.startup:0000041e L0
     /tmp/cchnXiHP.s:2258   .text.startup:00000434 L0
     /tmp/cchnXiHP.s:2281   .text.startup:00000462 L0
     /tmp/cchnXiHP.s:2332   .text.startup:000004c4 L0
     /tmp/cchnXiHP.s:2338   .text.startup:000004d0 L0
     /tmp/cchnXiHP.s:2347   .text.startup:000004e2 L0
     /tmp/cchnXiHP.s:7029   .progmem.data:0000034d __c.48
     /tmp/cchnXiHP.s:7087   .bss:00000008 last_cyclel
     /tmp/cchnXiHP.s:7067   .bss:00000000 last_ms
     /tmp/cchnXiHP.s:7025   .progmem.data:00000341 __c.47
     /tmp/cchnXiHP.s:7021   .progmem.data:00000335 __c.46
     /tmp/cchnXiHP.s:7017   .progmem.data:00000332 __c.45
     /tmp/cchnXiHP.s:7013   .progmem.data:00000318 __c.44
     /tmp/cchnXiHP.s:2694   .text.startup:0000074c L0
     /tmp/cchnXiHP.s:7009   .progmem.data:0000030f __c.43
     /tmp/cchnXiHP.s:7005   .progmem.data:000002fd __c.42
     /tmp/cchnXiHP.s:7001   .progmem.data:000002fb __c.41
     /tmp/cchnXiHP.s:6997   .progmem.data:000002e7 __c.40
     /tmp/cchnXiHP.s:6993   .progmem.data:000002e5 __c.39
     /tmp/cchnXiHP.s:6989   .progmem.data:000002e2 __c.38
     /tmp/cchnXiHP.s:6985   .progmem.data:0000029d __c.37
     /tmp/cchnXiHP.s:6981   .progmem.data:00000278 __c.36
     /tmp/cchnXiHP.s:2897   .text.startup:0000091e L0
     /tmp/cchnXiHP.s:2898   .text.startup:00000920 L0
     /tmp/cchnXiHP.s:2994   .text.startup:000009da L0
     /tmp/cchnXiHP.s:3002   .text.startup:000009ea L0
     /tmp/cchnXiHP.s:3019   .text.startup:00000a0c L0
     /tmp/cchnXiHP.s:3027   .text.startup:00000a1c L0
     /tmp/cchnXiHP.s:3138   .text.startup:00000af2 L0
     /tmp/cchnXiHP.s:3146   .text.startup:00000b02 L0
     /tmp/cchnXiHP.s:3154   .text.startup:00000b12 L0
     /tmp/cchnXiHP.s:3162   .text.startup:00000b22 L0
     /tmp/cchnXiHP.s:3170   .text.startup:00000b32 L0
     /tmp/cchnXiHP.s:3176   .text.startup:00000b40 L0
     /tmp/cchnXiHP.s:3262   .text.startup:00000be0 L0
     /tmp/cchnXiHP.s:3285   .text.startup:00000c0e L0
     /tmp/cchnXiHP.s:3296   .text.startup:00000c24 L0
     /tmp/cchnXiHP.s:3365   .text.startup:00000ca6 L0
     /tmp/cchnXiHP.s:3384   .text.startup:00000cca L0
     /tmp/cchnXiHP.s:3392   .text.startup:00000cd8 L0
     /tmp/cchnXiHP.s:3394   .text.startup:00000cdc L0
     /tmp/cchnXiHP.s:3400   .text.startup:00000ce8 L0
     /tmp/cchnXiHP.s:3406   .text.startup:00000cf4 L0
     /tmp/cchnXiHP.s:6969   .progmem.data:00000258 __c.32
     /tmp/cchnXiHP.s:3549   .text.startup:00000e12 L0
     /tmp/cchnXiHP.s:3589   .text.startup:00000e5e L0
     /tmp/cchnXiHP.s:3621   .text.startup:00000e9c L0
     /tmp/cchnXiHP.s:3638   .text.startup:00000ebe L0
     /tmp/cchnXiHP.s:3639   .text.startup:00000ec0 L0
     /tmp/cchnXiHP.s:3646   .text.startup:00000ecc L0
     /tmp/cchnXiHP.s:3666   .text.startup:00000eee L0
     /tmp/cchnXiHP.s:3668   .text.startup:00000ef4 L0
     /tmp/cchnXiHP.s:3674   .text.startup:00000f02 L0
     /tmp/cchnXiHP.s:3679   .text.startup:00000f0e L0
     /tmp/cchnXiHP.s:3837   .text.startup:0000103e L0
     /tmp/cchnXiHP.s:3839   .text.startup:00001042 L0
     /tmp/cchnXiHP.s:3846   .text.startup:00001050 L0
     /tmp/cchnXiHP.s:3853   .text.startup:0000105e L0
     /tmp/cchnXiHP.s:3858   .text.startup:00001068 L0
     /tmp/cchnXiHP.s:3864   .text.startup:00001074 L0
     /tmp/cchnXiHP.s:3978   .text.startup:0000114c L0
     /tmp/cchnXiHP.s:3986   .text.startup:0000115c L0
     /tmp/cchnXiHP.s:3990   .text.startup:00001166 L0
     /tmp/cchnXiHP.s:3996   .text.startup:00001172 L0
     /tmp/cchnXiHP.s:4002   .text.startup:0000117e L0
     /tmp/cchnXiHP.s:4017   .text.startup:0000119a L0
     /tmp/cchnXiHP.s:4018   .text.startup:0000119c L0
     /tmp/cchnXiHP.s:4065   .text.startup:000011f4 L0
     /tmp/cchnXiHP.s:4067   .text.startup:000011f8 L0
     /tmp/cchnXiHP.s:4072   .text.startup:00001202 L0
     /tmp/cchnXiHP.s:4103   .text.startup:0000123c L0
     /tmp/cchnXiHP.s:4110   .text.startup:0000124a L0
     /tmp/cchnXiHP.s:4115   .text.startup:00001254 L0
     /tmp/cchnXiHP.s:4147   .text.startup:0000128e L0
     /tmp/cchnXiHP.s:4148   .text.startup:00001290 L0
     /tmp/cchnXiHP.s:4239   .text.startup:00001326 L0
     /tmp/cchnXiHP.s:4253   .text.startup:0000133e L0
     /tmp/cchnXiHP.s:4259   .text.startup:0000134a L0
     /tmp/cchnXiHP.s:4300   .text.startup:00001396 L0
     /tmp/cchnXiHP.s:4440   .text.startup:000013da L0
     /tmp/cchnXiHP.s:4476   .text.startup:0000140c L0
     /tmp/cchnXiHP.s:4505   .text.startup:00001444 L0
     /tmp/cchnXiHP.s:4543   .text.startup:0000148c L0
     /tmp/cchnXiHP.s:4551   .text.startup:0000149c L0
     /tmp/cchnXiHP.s:4570   .text.startup:000014c0 L0
     /tmp/cchnXiHP.s:4572   .text.startup:000014c4 L0
     /tmp/cchnXiHP.s:4578   .text.startup:000014d0 L0
     /tmp/cchnXiHP.s:4584   .text.startup:000014dc L0
     /tmp/cchnXiHP.s:4610   .text.startup:0000150c L0
     /tmp/cchnXiHP.s:4619   .text.startup:0000151c L0
     /tmp/cchnXiHP.s:4627   .text.startup:0000152c L0
     /tmp/cchnXiHP.s:4629   .text.startup:00001530 L0
     /tmp/cchnXiHP.s:4637   .text.startup:00001540 L0
     /tmp/cchnXiHP.s:4645   .text.startup:00001550 L0
     /tmp/cchnXiHP.s:5181   .text.startup:0000194a L0
     /tmp/cchnXiHP.s:5189   .text.startup:00001958 L0
     /tmp/cchnXiHP.s:5197   .text.startup:00001966 L0
     /tmp/cchnXiHP.s:5213   .text.startup:00001984 L0
     /tmp/cchnXiHP.s:5219   .text.startup:00001990 L0
     /tmp/cchnXiHP.s:5270   .text.startup:000019f0 L0
     /tmp/cchnXiHP.s:5324   .text.startup:00001a54 L0
     /tmp/cchnXiHP.s:5356   .text.startup:00001a92 L0
     /tmp/cchnXiHP.s:5366   .text.startup:00001aa6 L0
     /tmp/cchnXiHP.s:5474   .text.startup:00001b80 L0
     /tmp/cchnXiHP.s:5505   .text.startup:00001bc0 L0
     /tmp/cchnXiHP.s:5515   .text.startup:00001bd4 L0
     /tmp/cchnXiHP.s:5574   .text.startup:00001c4e L0
     /tmp/cchnXiHP.s:5641   .text.startup:00001cd2 L0
     /tmp/cchnXiHP.s:5661   .text.startup:00001cf8 L0
     /tmp/cchnXiHP.s:5685   .text.startup:00001d26 L0
     /tmp/cchnXiHP.s:5773   .text.startup:00001dca L0
     /tmp/cchnXiHP.s:5797   .text.startup:00001df8 L0
     /tmp/cchnXiHP.s:5825   .text.startup:00001e30 L0
     /tmp/cchnXiHP.s:5827   .text.startup:00001e34 L0
     /tmp/cchnXiHP.s:5833   .text.startup:00001e40 L0
     /tmp/cchnXiHP.s:5839   .text.startup:00001e4c L0
     /tmp/cchnXiHP.s:5882   .text.startup:00001ea0 L0
     /tmp/cchnXiHP.s:5884   .text.startup:00001ea4 L0
     /tmp/cchnXiHP.s:5890   .text.startup:00001eb0 L0
     /tmp/cchnXiHP.s:5895   .text.startup:00001eba L0
     /tmp/cchnXiHP.s:5936   .text.startup:00001f0a L0
     /tmp/cchnXiHP.s:5938   .text.startup:00001f0e L0
     /tmp/cchnXiHP.s:5944   .text.startup:00001f1a L0
     /tmp/cchnXiHP.s:5950   .text.startup:00001f26 L0
     /tmp/cchnXiHP.s:5974   .text.startup:00001f54 L0
     /tmp/cchnXiHP.s:5976   .text.startup:00001f58 L0
     /tmp/cchnXiHP.s:5982   .text.startup:00001f64 L0
     /tmp/cchnXiHP.s:5987   .text.startup:00001f6e L0
     /tmp/cchnXiHP.s:6030   .text.startup:00001fc2 L0
     /tmp/cchnXiHP.s:6032   .text.startup:00001fc6 L0
     /tmp/cchnXiHP.s:6038   .text.startup:00001fd2 L0
     /tmp/cchnXiHP.s:6044   .text.startup:00001fde L0
     /tmp/cchnXiHP.s:6068   .text.startup:0000200c L0
     /tmp/cchnXiHP.s:6070   .text.startup:00002010 L0
     /tmp/cchnXiHP.s:6076   .text.startup:0000201c L0
     /tmp/cchnXiHP.s:6082   .text.startup:00002028 L0
     /tmp/cchnXiHP.s:6106   .text.startup:00002056 L0
     /tmp/cchnXiHP.s:6108   .text.startup:0000205a L0
     /tmp/cchnXiHP.s:6114   .text.startup:00002066 L0
     /tmp/cchnXiHP.s:6120   .text.startup:00002072 L0
     /tmp/cchnXiHP.s:6144   .text.startup:000020a0 L0
     /tmp/cchnXiHP.s:6146   .text.startup:000020a4 L0
     /tmp/cchnXiHP.s:6152   .text.startup:000020b0 L0
     /tmp/cchnXiHP.s:6158   .text.startup:000020bc L0
     /tmp/cchnXiHP.s:6196   .text.startup:00002104 L0
     /tmp/cchnXiHP.s:6204   .text.startup:00002114 L0
     /tmp/cchnXiHP.s:6211   .text.startup:00002122 L0
     /tmp/cchnXiHP.s:6330   .text.startup:000021f8 L0
     /tmp/cchnXiHP.s:6336   .text.startup:00002204 L0
     /tmp/cchnXiHP.s:6342   .text.startup:00002210 L0
     /tmp/cchnXiHP.s:6353   .text.startup:00002226 L0
     /tmp/cchnXiHP.s:6490   .text.startup:0000232e L0
     /tmp/cchnXiHP.s:6516   .text.startup:00002362 L0
     /tmp/cchnXiHP.s:6529   .text.startup:00002380 L0
     /tmp/cchnXiHP.s:6631   .text.startup:0000244c L0
     /tmp/cchnXiHP.s:6675   .text.startup:000024ac L0
     /tmp/cchnXiHP.s:6965   .progmem.data:0000023d __c.31
     /tmp/cchnXiHP.s:6961   .progmem.data:00000239 __c.30
     /tmp/cchnXiHP.s:6756   .text.startup:00002552 L0
     /tmp/cchnXiHP.s:6777   .text.startup:0000257c L0
     /tmp/cchnXiHP.s:6816   .text.startup:000025ca L0
     /tmp/cchnXiHP.s:6977   .progmem.data:0000026d __c.35
     /tmp/cchnXiHP.s:6828   .text.startup:000025e2 L0
     /tmp/cchnXiHP.s:6973   .progmem.data:0000025b __c.34
     /tmp/cchnXiHP.s:7078   .rodata:00000000 RAM_SIZE
     /tmp/cchnXiHP.s:7127   .bss:0000063b fail_on_all_faults
     /tmp/cchnXiHP.s:118    .text:000000ba .L5
     /tmp/cchnXiHP.s:112    .text:000000ae .L11
     /tmp/cchnXiHP.s:151    .text:00000104 .L6
     /tmp/cchnXiHP.s:108    .text:000000a8 .L7
     /tmp/cchnXiHP.s:149    .text:00000102 .L8
     /tmp/cchnXiHP.s:224    .text:00000182 .L9
     /tmp/cchnXiHP.s:245    .text:0000019c .L12
     /tmp/cchnXiHP.s:787    .text:000006b0 .L15
     /tmp/cchnXiHP.s:558    .text:0000049c .L12
     /tmp/cchnXiHP.s:799    .text:000006ce .L43
     /tmp/cchnXiHP.s:747    .text:0000065a .L44
     /tmp/cchnXiHP.s:848    .text:0000073e .L45
     /tmp/cchnXiHP.s:823    .text:0000070c .L18
     /tmp/cchnXiHP.s:818    .text:00000700 .L54
     /tmp/cchnXiHP.s:974    .text:0000084e .L55
     /tmp/cchnXiHP.s:857    .text:0000074c .L41
     /tmp/cchnXiHP.s:926    .text:000007dc .L31
     /tmp/cchnXiHP.s:719    .text:00000610 .L32
     /tmp/cchnXiHP.s:709    .text:000005f4 .L13
     /tmp/cchnXiHP.s:766    .text:0000068a .L14
     /tmp/cchnXiHP.s:705    .text:000005ee .L35
     /tmp/cchnXiHP.s:745    .text:00000658 .L36
     /tmp/cchnXiHP.s:805    .text:000006d8 .L38
     /tmp/cchnXiHP.s:565    .text:000004a8 .L16
     /tmp/cchnXiHP.s:754    .text:00000664 .L56
     /tmp/cchnXiHP.s:946    .text:00000812 .L57
     /tmp/cchnXiHP.s:626    .text:0000054a .L23
     /tmp/cchnXiHP.s:629    .text:0000054e .L25
     /tmp/cchnXiHP.s:750    .text:0000065e .L17
     /tmp/cchnXiHP.s:888    .text:00000786 .L27
     /tmp/cchnXiHP.s:882    .text:0000077a .L14
     /tmp/cchnXiHP.s:956    .text:00000824 .L28
     /tmp/cchnXiHP.s:878    .text:00000774 .L29
     /tmp/cchnXiHP.s:924    .text:000007da .L30
     /tmp/cchnXiHP.s:701    .text:000005e8 .L33
     /tmp/cchnXiHP.s:837    .text:0000072a .L24
     /tmp/cchnXiHP.s:648    .text:00000572 .L26
     /tmp/cchnXiHP.s:618    .text:0000053c .L22
     /tmp/cchnXiHP.s:851    .text:00000742 .L58
     /tmp/cchnXiHP.s:672    .text:000005a0 .L40
     /tmp/cchnXiHP.s:1092   .text:0000093a .L65
     /tmp/cchnXiHP.s:1069   .text:00000910 .L63
     /tmp/cchnXiHP.s:1250   .text:00000a6a .L75
     /tmp/cchnXiHP.s:1228   .text:00000a42 .L66
     /tmp/cchnXiHP.s:1353   .text:00000b2e .L15
     /tmp/cchnXiHP.s:1595   .text:00000d62 .L94
     /tmp/cchnXiHP.s:1521   .text:00000cca .L95
     /tmp/cchnXiHP.s:1621   .text:00000d94 .L96
     /tmp/cchnXiHP.s:1608   .text:00000d78 .L104
     /tmp/cchnXiHP.s:1600   .text:00000d6a .L98
     /tmp/cchnXiHP.s:1625   .text:00000d9a .L103
     /tmp/cchnXiHP.s:1493   .text:00000c80 .L88
     /tmp/cchnXiHP.s:1483   .text:00000c64 .L16
     /tmp/cchnXiHP.s:1537   .text:00000cf6 .L89
     /tmp/cchnXiHP.s:1479   .text:00000c5e .L86
     /tmp/cchnXiHP.s:1519   .text:00000cc8 .L87
     /tmp/cchnXiHP.s:1682   .text:00000e12 .L105
     /tmp/cchnXiHP.s:1571   .text:00000d38 .L93
     /tmp/cchnXiHP.s:1525   .text:00000cd0 .L77
     /tmp/cchnXiHP.s:1418   .text:00000bd8 .L79
     /tmp/cchnXiHP.s:1413   .text:00000bd0 .L106
     /tmp/cchnXiHP.s:1644   .text:00000dbc .L81
     /tmp/cchnXiHP.s:1638   .text:00000db0 .L17
     /tmp/cchnXiHP.s:1723   .text:00000e64 .L82
     /tmp/cchnXiHP.s:1634   .text:00000daa .L83
     /tmp/cchnXiHP.s:1680   .text:00000e10 .L84
     /tmp/cchnXiHP.s:1573   .text:00000d3a .L92
     /tmp/cchnXiHP.s:1442   .text:00000c06 .L80
     /tmp/cchnXiHP.s:1774   .text.startup:00000036 .L108
     /tmp/cchnXiHP.s:1772   .text.startup:00000034 .L109
     /tmp/cchnXiHP.s:4443   .text.startup:000013de .L527
     /tmp/cchnXiHP.s:2594   .text.startup:0000064c .L528
     /tmp/cchnXiHP.s:2010   .text.startup:0000024e .L117
     /tmp/cchnXiHP.s:2142   .text.startup:00000350 .L118
     /tmp/cchnXiHP.s:2127   .text.startup:00000334 .L529
     /tmp/cchnXiHP.s:4262   .text.startup:0000134e .L530
     /tmp/cchnXiHP.s:2070   .text.startup:000002c2 .L18
     /tmp/cchnXiHP.s:1882   .text.startup:0000012a .L286
     /tmp/cchnXiHP.s:2040   .text.startup:00000288 .L119
     /tmp/cchnXiHP.s:2160   .text.startup:00000372 .L120
     /tmp/cchnXiHP.s:4126   .text.startup:00001266 .L121
     /tmp/cchnXiHP.s:4288   .text.startup:00001380 .L305
     /tmp/cchnXiHP.s:3298   .text.startup:00000c26 .L306
     /tmp/cchnXiHP.s:3493   .text.startup:00000d9a .L531
     /tmp/cchnXiHP.s:2308   .text.startup:00000494 .L19
     /tmp/cchnXiHP.s:3387   .text.startup:00000cce .L294
     /tmp/cchnXiHP.s:4241   .text.startup:00001328 .L142
     /tmp/cchnXiHP.s:2412   .text.startup:000004f2 .L327
     /tmp/cchnXiHP.s:2357   .jumptables.gcc.main:00000000 .L296
     /tmp/cchnXiHP.s:2483   .text.startup:00000576 .L110
     /tmp/cchnXiHP.s:2498   .text.startup:00000592 .L111
     /tmp/cchnXiHP.s:2569   .text.startup:0000061c .L282
     /tmp/cchnXiHP.s:1885   .text.startup:0000012e .L113
     /tmp/cchnXiHP.s:5235   .text.startup:000019ac .L532
     /tmp/cchnXiHP.s:2746   .text.startup:000007ec .L116
     /tmp/cchnXiHP.s:2787   .text.startup:00000848 .L112
     /tmp/cchnXiHP.s:2808   .text.startup:00000870 .L171
     /tmp/cchnXiHP.s:2816   .text.startup:0000087e .L113
     /tmp/cchnXiHP.s:2858   .text.startup:000008d0 .L114
     /tmp/cchnXiHP.s:4009   .text.startup:0000118a .L172
     /tmp/cchnXiHP.s:4142   .text.startup:00001284 .L173
     /tmp/cchnXiHP.s:4447   .text.startup:000013e6 .L533
     /tmp/cchnXiHP.s:3227   .text.startup:00000b9c .L291
     /tmp/cchnXiHP.s:2928   .text.startup:0000095a .L115
     /tmp/cchnXiHP.s:2954   .text.startup:0000098c .L116
     /tmp/cchnXiHP.s:2975   .text.startup:000009b4 .L146
     /tmp/cchnXiHP.s:4046   .text.startup:000011d0 .L147
     /tmp/cchnXiHP.s:4180   .text.startup:000012b4 .L307
     /tmp/cchnXiHP.s:4670   .text.startup:0000157e .L534
     /tmp/cchnXiHP.s:5207   .text.startup:00001978 .L150
     /tmp/cchnXiHP.s:3052   .text.startup:00000a4a .L117
     /tmp/cchnXiHP.s:3078   .text.startup:00000a7c .L118
     /tmp/cchnXiHP.s:3123   .text.startup:00000ad4 .L161
     /tmp/cchnXiHP.s:4084   .text.startup:00001218 .L162
     /tmp/cchnXiHP.s:4174   .text.startup:000012aa .L310
     /tmp/cchnXiHP.s:4690   .text.startup:000015a4 .L535
     /tmp/cchnXiHP.s:5239   .text.startup:000019b4 .L536
     /tmp/cchnXiHP.s:6796   .text.startup:000025a2 .L537
     /tmp/cchnXiHP.s:6493   .text.startup:00002332 .L538
     /tmp/cchnXiHP.s:3249   .text.startup:00000bc6 .L278
     /tmp/cchnXiHP.s:2538   .text.startup:000005e0 .L281
     /tmp/cchnXiHP.s:2271   .text.startup:0000044c .L125
     /tmp/cchnXiHP.s:2417   .text.startup:000004fa .L295
     /tmp/cchnXiHP.s:3332   .text.startup:00000c64 .L119
     /tmp/cchnXiHP.s:4186   .text.startup:000012be .L539
     /tmp/cchnXiHP.s:2427   .text.startup:0000050a .L289
     /tmp/cchnXiHP.s:2422   .text.startup:00000502 .L522
     /tmp/cchnXiHP.s:3867   .text.startup:00001078 .L297
     /tmp/cchnXiHP.s:3544   .text.startup:00000e08 .L298
     /tmp/cchnXiHP.s:3682   .text.startup:00000f12 .L299
     /tmp/cchnXiHP.s:3411   .text.startup:00000cfc .L120
     /tmp/cchnXiHP.s:3433   .text.startup:00000d26 .L134
     /tmp/cchnXiHP.s:3447   .text.startup:00000d40 .L121
     /tmp/cchnXiHP.s:2304   .text.startup:0000048e .L129
     /tmp/cchnXiHP.s:3554   .text.startup:00000e1a .L122
     /tmp/cchnXiHP.s:3564   .text.startup:00000e2c .L123
     /tmp/cchnXiHP.s:3970   .text.startup:0000113c .L198
     /tmp/cchnXiHP.s:3592   .text.startup:00000e62 .L124
     /tmp/cchnXiHP.s:4537   .text.startup:00001480 .L199
     /tmp/cchnXiHP.s:3641   .text.startup:00000ec2 .L200
     /tmp/cchnXiHP.s:4315   .text.startup:000013b4 .L540
     /tmp/cchnXiHP.s:5794   .text.startup:00001df0 .L541
     /tmp/cchnXiHP.s:6279   .text.startup:0000219e .L213
     /tmp/cchnXiHP.s:6255   .text.startup:00002172 .L234
     /tmp/cchnXiHP.s:6245   .text.startup:00002160 .L215
     /tmp/cchnXiHP.s:4586   .text.startup:000014de .L216
     /tmp/cchnXiHP.s:4612   .text.startup:0000150e .L235
     /tmp/cchnXiHP.s:3686   .text.startup:00000f18 .L125
     /tmp/cchnXiHP.s:3745   .text.startup:00000f8c .L126
     /tmp/cchnXiHP.s:3763   .text.startup:00000fae .L135
     /tmp/cchnXiHP.s:3767   .text.startup:00000fb4 .L127
     /tmp/cchnXiHP.s:3820   .text.startup:0000101c .L128
     /tmp/cchnXiHP.s:5192   .text.startup:0000195c .L136
     /tmp/cchnXiHP.s:4247   .text.startup:00001332 .L542
     /tmp/cchnXiHP.s:4435   .text.startup:000013d0 .L140
     /tmp/cchnXiHP.s:5184   .text.startup:0000194e .L141
     /tmp/cchnXiHP.s:3178   .text.startup:00000b44 .L144
     /tmp/cchnXiHP.s:3183   .text.startup:00000b4c .L143
     /tmp/cchnXiHP.s:3871   .text.startup:0000107e .L129
     /tmp/cchnXiHP.s:3885   .text.startup:00001098 .L130
     /tmp/cchnXiHP.s:3911   .text.startup:000010ca .L131
     /tmp/cchnXiHP.s:3933   .text.startup:000010f4 .L133
     /tmp/cchnXiHP.s:4168   .text.startup:000012a0 .L323
     /tmp/cchnXiHP.s:6700   .text.startup:000024de .L543
     /tmp/cchnXiHP.s:4705   .text.startup:000015c0 .L544
     /tmp/cchnXiHP.s:5251   .text.startup:000019ca .L257
     /tmp/cchnXiHP.s:4117   .text.startup:00001256 .L311
     /tmp/cchnXiHP.s:4150   .text.startup:00001292 .L511
     /tmp/cchnXiHP.s:4048   .text.startup:000011d2 .L132
     /tmp/cchnXiHP.s:4843   .text.startup:000016ca .L152
     /tmp/cchnXiHP.s:4294   .text.startup:0000138a .L153
     /tmp/cchnXiHP.s:4797   .text.startup:00001670 .L545
     /tmp/cchnXiHP.s:3207   .text.startup:00000b78 .L518
     /tmp/cchnXiHP.s:4086   .text.startup:0000121a .L133
     /tmp/cchnXiHP.s:4465   .text.startup:000013f4 .L167
     /tmp/cchnXiHP.s:5200   .text.startup:0000196a .L168
     /tmp/cchnXiHP.s:4512   .text.startup:0000144e .L546
     /tmp/cchnXiHP.s:3371   .text.startup:00000cb0 .L148
     /tmp/cchnXiHP.s:2225   .text.startup:000003f2 .L510
     /tmp/cchnXiHP.s:2440   .text.startup:00000522 .L126
     /tmp/cchnXiHP.s:5311   .text.startup:00001a3a .L185
     /tmp/cchnXiHP.s:4159   .jumptables.gcc.main:0000006a .L292
     /tmp/cchnXiHP.s:4190   .text.startup:000012c4 .L134
     /tmp/cchnXiHP.s:4227   .text.startup:0000130e .L135
     /tmp/cchnXiHP.s:4395   .text.startup:000013c2 .L547
     /tmp/cchnXiHP.s:5176   .text.startup:00001940 .L548
     /tmp/cchnXiHP.s:4866   .text.startup:000016f8 .L156
     /tmp/cchnXiHP.s:4324   .jumptables.gcc.main:00000078 .L202
     /tmp/cchnXiHP.s:4404   .jumptables.gcc.main:00000102 .L260
     /tmp/cchnXiHP.s:1867   .text.startup:0000010a .L111
     /tmp/cchnXiHP.s:4456   .jumptables.gcc.main:0000013c .L176
     /tmp/cchnXiHP.s:6589   .text.startup:000023f6 .L549
     /tmp/cchnXiHP.s:4494   .text.startup:0000142e .L525
     /tmp/cchnXiHP.s:6315   .text.startup:000021da .L319
     /tmp/cchnXiHP.s:3648   .text.startup:00000ece .L321
     /tmp/cchnXiHP.s:6218   .text.startup:0000212e .L293
     /tmp/cchnXiHP.s:6511   .text.startup:00002358 .L242
     /tmp/cchnXiHP.s:5897   .text.startup:00001ebc .L227
     /tmp/cchnXiHP.s:6189   .text.startup:000020f6 .L550
     /tmp/cchnXiHP.s:6297   .text.startup:000021bc .L551
     /tmp/cchnXiHP.s:6285   .text.startup:000021a8 .L552
     /tmp/cchnXiHP.s:6291   .text.startup:000021b2 .L553
     /tmp/cchnXiHP.s:4723   .text.startup:000015e2 .L136
     /tmp/cchnXiHP.s:4737   .text.startup:000015fc .L137
     /tmp/cchnXiHP.s:4761   .text.startup:0000162a .L138
     /tmp/cchnXiHP.s:4822   .text.startup:000016a2 .L158
     /tmp/cchnXiHP.s:4077   .text.startup:0000120c .L520
     /tmp/cchnXiHP.s:4891   .text.startup:0000172a .L159
     /tmp/cchnXiHP.s:5280   .text.startup:00001a02 .L197
     /tmp/cchnXiHP.s:4932   .text.startup:00001776 .L21
     /tmp/cchnXiHP.s:4927   .text.startup:0000176e .L139
     /tmp/cchnXiHP.s:4964   .text.startup:000017b2 .L196
     /tmp/cchnXiHP.s:5020   .text.startup:0000181c .L195
     /tmp/cchnXiHP.s:5078   .text.startup:00001888 .L22
     /tmp/cchnXiHP.s:5073   .text.startup:00001880 .L140
     /tmp/cchnXiHP.s:5147   .text.startup:0000190a .L274
     /tmp/cchnXiHP.s:6696   .text.startup:000024d6 .L554
     /tmp/cchnXiHP.s:6672   .text.startup:000024a4 .L555
     /tmp/cchnXiHP.s:2696   .text.startup:00000750 .L115
     /tmp/cchnXiHP.s:5291   .text.startup:00001a14 .L23
     /tmp/cchnXiHP.s:5286   .text.startup:00001a0c .L141
     /tmp/cchnXiHP.s:4020   .text.startup:0000119e .L194
     /tmp/cchnXiHP.s:6554   .text.startup:000023b0 .L315
     /tmp/cchnXiHP.s:6771   .text.startup:00002570 .L556
     /tmp/cchnXiHP.s:6532   .text.startup:00002384 .L314
     /tmp/cchnXiHP.s:6568   .text.startup:000023cc .L312
     /tmp/cchnXiHP.s:6750   .text.startup:00002546 .L557
     /tmp/cchnXiHP.s:6497   .text.startup:0000233c .L317
     /tmp/cchnXiHP.s:5612   .text.startup:00001c9a .L142
     /tmp/cchnXiHP.s:5160   .text.startup:00001922 .L253
     /tmp/cchnXiHP.s:5152   .text.startup:00001912 .L269
     /tmp/cchnXiHP.s:5142   .text.startup:00001902 .L526
     /tmp/cchnXiHP.s:5750   .text.startup:00001d9e .L143
     /tmp/cchnXiHP.s:5764   .text.startup:00001db8 .L271
     /tmp/cchnXiHP.s:6834   .text.startup:000025f2 .L322
     /tmp/cchnXiHP.s:3652   .text.startup:00000ed4 .L212
     /tmp/cchnXiHP.s:6521   .text.startup:00002370 .L228
     /tmp/cchnXiHP.s:4647   .text.startup:00001552 .L225
     /tmp/cchnXiHP.s:5841   .text.startup:00001e4e .L229
     /tmp/cchnXiHP.s:6481   .text.startup:0000231c .L230
     /tmp/cchnXiHP.s:5989   .text.startup:00001f70 .L231
     /tmp/cchnXiHP.s:4561   .text.startup:000014ae .L209
     /tmp/cchnXiHP.s:6309   .text.startup:000021d0 .L558
     /tmp/cchnXiHP.s:6303   .text.startup:000021c6 .L559
     /tmp/cchnXiHP.s:6325   .text.startup:000021ee .L505
     /tmp/cchnXiHP.s:6265   .text.startup:00002184 .L218
     /tmp/cchnXiHP.s:4599   .text.startup:000014f6 .L236
     /tmp/cchnXiHP.s:6228   .text.startup:00002140 .L219
     /tmp/cchnXiHP.s:6160   .text.startup:000020be .L233
     /tmp/cchnXiHP.s:3657   .text.startup:00000edc .L211
     /tmp/cchnXiHP.s:6653   .text.startup:0000247c .L560
     /tmp/cchnXiHP.s:6634   .text.startup:00002454 .L561
     /tmp/cchnXiHP.s:6739   .text.startup:0000252c .L562
     /tmp/cchnXiHP.s:6410   .text.startup:00002292 .L244
     /tmp/cchnXiHP.s:6384   .text.startup:00002260 .L245
     /tmp/cchnXiHP.s:6417   .text.startup:0000229e .L250
     /tmp/cchnXiHP.s:6361   .text.startup:00002232 .L249
     /tmp/cchnXiHP.s:6474   .text.startup:00002310 .L247
     /tmp/cchnXiHP.s:3212   .text.startup:00000b80 .L521
     /tmp/cchnXiHP.s:6449   .text.startup:000022de .L251
     /tmp/cchnXiHP.s:6426   .text.startup:000022b0 .L252
     /tmp/cchnXiHP.s:4507   .text.startup:00001446 .L523
     /tmp/cchnXiHP.s:5221   .text.startup:00001992 .L309
     /tmp/cchnXiHP.s:6678   .text.startup:000024b2 .L519
     /tmp/cchnXiHP.s:2067   .text.startup:000002be .L123
     /tmp/cchnXiHP.s:6355   .text.startup:00002228 .L243
     /tmp/cchnXiHP.s:5517   .text.startup:00001bd6 .L183
     /tmp/cchnXiHP.s:5368   .text.startup:00001aa8 .L184
     /tmp/cchnXiHP.s:6826   .text.startup:000025de .L563
     /tmp/cchnXiHP.s:6824   .text.startup:000025dc .L288
     /tmp/cchnXiHP.s:2924   .text.startup:00000954 .L145
     /tmp/cchnXiHP.s:2783   .text.startup:00000842 .L170
     /tmp/cchnXiHP.s:3195   .text.startup:00000b62 .L132
     /tmp/cchnXiHP.s:3048   .text.startup:00000a44 .L160
     /tmp/cchnXiHP.s:3328   .text.startup:00000c5e .L258
     /tmp/cchnXiHP.s:3304   .text.startup:00000c30 .L130
     /tmp/cchnXiHP.s:5064   .text.startup:00001870 .L193
     /tmp/cchnXiHP.s:5008   .text.startup:00001806 .L192
     /tmp/cchnXiHP.s:4952   .text.startup:0000179c .L191
     /tmp/cchnXiHP.s:4982   .text.startup:000017d4 .L190
     /tmp/cchnXiHP.s:4916   .text.startup:0000175a .L189
     /tmp/cchnXiHP.s:5038   .text.startup:0000183e .L188
     /tmp/cchnXiHP.s:5098   .text.startup:000018ae .L186
     /tmp/cchnXiHP.s:5804   .text.startup:00001e06 .L210
     /tmp/cchnXiHP.s:6179   .text.startup:000020e4 .L318
     /tmp/cchnXiHP.s:5953   .text.startup:00001f2a .L208
     /tmp/cchnXiHP.s:6009   .text.startup:00001f98 .L207
     /tmp/cchnXiHP.s:6047   .text.startup:00001fe2 .L206
     /tmp/cchnXiHP.s:5861   .text.startup:00001e76 .L205
     /tmp/cchnXiHP.s:6085   .text.startup:0000202c .L204
     /tmp/cchnXiHP.s:6123   .text.startup:00002076 .L203
     /tmp/cchnXiHP.s:5917   .text.startup:00001ee4 .L201
     /tmp/cchnXiHP.s:5776   .text.startup:00001dce .L270
     /tmp/cchnXiHP.s:5600   .text.startup:00001c84 .L268
     /tmp/cchnXiHP.s:5742   .text.startup:00001d90 .L267
     /tmp/cchnXiHP.s:5724   .text.startup:00001d6e .L266
     /tmp/cchnXiHP.s:5706   .text.startup:00001d4c .L265
     /tmp/cchnXiHP.s:5688   .text.startup:00001d2a .L264
     /tmp/cchnXiHP.s:5668   .text.startup:00001d04 .L263
     /tmp/cchnXiHP.s:5124   .text.startup:000018e0 .L262
     /tmp/cchnXiHP.s:5648   .text.startup:00001cde .L261
     /tmp/cchnXiHP.s:5628   .text.startup:00001cb8 .L259
     /tmp/cchnXiHP.s:5542   .text.startup:00001c0a .L182
     /tmp/cchnXiHP.s:5420   .text.startup:00001b12 .L181
     /tmp/cchnXiHP.s:5393   .text.startup:00001ada .L180
     /tmp/cchnXiHP.s:5500   .text.startup:00001bb6 .L179
     /tmp/cchnXiHP.s:5469   .text.startup:00001b76 .L178
     /tmp/cchnXiHP.s:5351   .text.startup:00001a88 .L177
     /tmp/cchnXiHP.s:5569   .text.startup:00001c44 .L175

UNDEFINED SYMBOLS
SD_readSingleBlock
UART_puts_p
UART_puthex32
SD_printDataErrToken
SD_writeSingleBlock
memcpy
__muldi3
UART_init
SPI_init
SD_init
calloc
__brkval
UART_putdec32
__lshrdi3
__adddi3
__tablejump2__
__muluhisi3
__udivmodsi4
__mulsi3
__heap_start
__divmodsi4
__umulsidi3
__mulsidi3
__ashrdi3
UART_available
UART_getc
UART_putc
__do_copy_data
__do_clear_bss
